
USB-AMIGA-Interface.elf:     file format elf32-littlearm

Sections:
Idx Name          Size      VMA       LMA       File off  Algn
  0 .isr_vector   000000bc  08000000  08000000  00001000  2**0
                  CONTENTS, ALLOC, LOAD, READONLY, DATA
  1 .text         00003570  080000bc  080000bc  000010bc  2**2
                  CONTENTS, ALLOC, LOAD, READONLY, CODE
  2 .rodata       00000088  0800362c  0800362c  0000462c  2**2
                  CONTENTS, ALLOC, LOAD, READONLY, DATA
  3 .ARM.extab    00000000  080036b4  080036b4  00005104  2**0
                  CONTENTS, READONLY
  4 .ARM          00000000  080036b4  080036b4  00005104  2**0
                  CONTENTS, READONLY
  5 .preinit_array 00000000  080036b4  080036b4  00005104  2**0
                  CONTENTS, ALLOC, LOAD, DATA
  6 .init_array   00000004  080036b4  080036b4  000046b4  2**2
                  CONTENTS, ALLOC, LOAD, READONLY, DATA
  7 .fini_array   00000004  080036b8  080036b8  000046b8  2**2
                  CONTENTS, ALLOC, LOAD, READONLY, DATA
  8 .data         00000104  20000000  080036bc  00005000  2**2
                  CONTENTS, ALLOC, LOAD, DATA
  9 .bss          00000800  20000104  080037c0  00005104  2**2
                  ALLOC
 10 ._user_heap_stack 00000604  20000904  080037c0  00005904  2**0
                  ALLOC
 11 .ARM.attributes 00000028  00000000  00000000  00005104  2**0
                  CONTENTS, READONLY
 12 .debug_info   0000fe75  00000000  00000000  0000512c  2**0
                  CONTENTS, READONLY, DEBUGGING, OCTETS
 13 .debug_abbrev 0000387b  00000000  00000000  00014fa1  2**0
                  CONTENTS, READONLY, DEBUGGING, OCTETS
 14 .debug_loclists 00005352  00000000  00000000  0001881c  2**0
                  CONTENTS, READONLY, DEBUGGING, OCTETS
 15 .debug_aranges 00000b60  00000000  00000000  0001db70  2**3
                  CONTENTS, READONLY, DEBUGGING, OCTETS
 16 .debug_rnglists 00000bca  00000000  00000000  0001e6d0  2**0
                  CONTENTS, READONLY, DEBUGGING, OCTETS
 17 .debug_macro  0001d961  00000000  00000000  0001f29a  2**0
                  CONTENTS, READONLY, DEBUGGING, OCTETS
 18 .debug_line   00011f74  00000000  00000000  0003cbfb  2**0
                  CONTENTS, READONLY, DEBUGGING, OCTETS
 19 .debug_str    000aff2a  00000000  00000000  0004eb6f  2**0
                  CONTENTS, READONLY, DEBUGGING, OCTETS
 20 .comment      00000043  00000000  00000000  000fea99  2**0
                  CONTENTS, READONLY
 21 .debug_frame  00001a30  00000000  00000000  000feadc  2**2
                  CONTENTS, READONLY, DEBUGGING, OCTETS
 22 .debug_line_str 00000081  00000000  00000000  0010050c  2**0
                  CONTENTS, READONLY, DEBUGGING, OCTETS

Disassembly of section .text:

080000bc <__do_global_dtors_aux>:
 80000bc:	b510      	push	{r4, lr}
 80000be:	4c06      	ldr	r4, [pc, #24]	@ (80000d8 <__do_global_dtors_aux+0x1c>)
 80000c0:	7823      	ldrb	r3, [r4, #0]
 80000c2:	2b00      	cmp	r3, #0
 80000c4:	d107      	bne.n	80000d6 <__do_global_dtors_aux+0x1a>
 80000c6:	4b05      	ldr	r3, [pc, #20]	@ (80000dc <__do_global_dtors_aux+0x20>)
 80000c8:	2b00      	cmp	r3, #0
 80000ca:	d002      	beq.n	80000d2 <__do_global_dtors_aux+0x16>
 80000cc:	4804      	ldr	r0, [pc, #16]	@ (80000e0 <__do_global_dtors_aux+0x24>)
 80000ce:	e000      	b.n	80000d2 <__do_global_dtors_aux+0x16>
 80000d0:	bf00      	nop
 80000d2:	2301      	movs	r3, #1
 80000d4:	7023      	strb	r3, [r4, #0]
 80000d6:	bd10      	pop	{r4, pc}
 80000d8:	20000104 	.word	0x20000104
 80000dc:	00000000 	.word	0x00000000
 80000e0:	08003614 	.word	0x08003614

080000e4 <frame_dummy>:
 80000e4:	4b04      	ldr	r3, [pc, #16]	@ (80000f8 <frame_dummy+0x14>)
 80000e6:	b510      	push	{r4, lr}
 80000e8:	2b00      	cmp	r3, #0
 80000ea:	d003      	beq.n	80000f4 <frame_dummy+0x10>
 80000ec:	4903      	ldr	r1, [pc, #12]	@ (80000fc <frame_dummy+0x18>)
 80000ee:	4804      	ldr	r0, [pc, #16]	@ (8000100 <frame_dummy+0x1c>)
 80000f0:	e000      	b.n	80000f4 <frame_dummy+0x10>
 80000f2:	bf00      	nop
 80000f4:	bd10      	pop	{r4, pc}
 80000f6:	46c0      	nop			@ (mov r8, r8)
 80000f8:	00000000 	.word	0x00000000
 80000fc:	20000108 	.word	0x20000108
 8000100:	08003614 	.word	0x08003614

08000104 <strlen>:
 8000104:	2300      	movs	r3, #0
 8000106:	5cc2      	ldrb	r2, [r0, r3]
 8000108:	3301      	adds	r3, #1
 800010a:	2a00      	cmp	r2, #0
 800010c:	d1fb      	bne.n	8000106 <strlen+0x2>
 800010e:	1e58      	subs	r0, r3, #1
 8000110:	4770      	bx	lr
	...

08000114 <__gnu_thumb1_case_sqi>:
 8000114:	b402      	push	{r1}
 8000116:	4671      	mov	r1, lr
 8000118:	0849      	lsrs	r1, r1, #1
 800011a:	0049      	lsls	r1, r1, #1
 800011c:	5609      	ldrsb	r1, [r1, r0]
 800011e:	0049      	lsls	r1, r1, #1
 8000120:	448e      	add	lr, r1
 8000122:	bc02      	pop	{r1}
 8000124:	4770      	bx	lr
 8000126:	46c0      	nop			@ (mov r8, r8)

08000128 <__gnu_thumb1_case_uqi>:
 8000128:	b402      	push	{r1}
 800012a:	4671      	mov	r1, lr
 800012c:	0849      	lsrs	r1, r1, #1
 800012e:	0049      	lsls	r1, r1, #1
 8000130:	5c09      	ldrb	r1, [r1, r0]
 8000132:	0049      	lsls	r1, r1, #1
 8000134:	448e      	add	lr, r1
 8000136:	bc02      	pop	{r1}
 8000138:	4770      	bx	lr
 800013a:	46c0      	nop			@ (mov r8, r8)

0800013c <__gnu_thumb1_case_shi>:
 800013c:	b403      	push	{r0, r1}
 800013e:	4671      	mov	r1, lr
 8000140:	0849      	lsrs	r1, r1, #1
 8000142:	0040      	lsls	r0, r0, #1
 8000144:	0049      	lsls	r1, r1, #1
 8000146:	5e09      	ldrsh	r1, [r1, r0]
 8000148:	0049      	lsls	r1, r1, #1
 800014a:	448e      	add	lr, r1
 800014c:	bc03      	pop	{r0, r1}
 800014e:	4770      	bx	lr

08000150 <__udivsi3>:
 8000150:	2200      	movs	r2, #0
 8000152:	0843      	lsrs	r3, r0, #1
 8000154:	428b      	cmp	r3, r1
 8000156:	d374      	bcc.n	8000242 <__udivsi3+0xf2>
 8000158:	0903      	lsrs	r3, r0, #4
 800015a:	428b      	cmp	r3, r1
 800015c:	d35f      	bcc.n	800021e <__udivsi3+0xce>
 800015e:	0a03      	lsrs	r3, r0, #8
 8000160:	428b      	cmp	r3, r1
 8000162:	d344      	bcc.n	80001ee <__udivsi3+0x9e>
 8000164:	0b03      	lsrs	r3, r0, #12
 8000166:	428b      	cmp	r3, r1
 8000168:	d328      	bcc.n	80001bc <__udivsi3+0x6c>
 800016a:	0c03      	lsrs	r3, r0, #16
 800016c:	428b      	cmp	r3, r1
 800016e:	d30d      	bcc.n	800018c <__udivsi3+0x3c>
 8000170:	22ff      	movs	r2, #255	@ 0xff
 8000172:	0209      	lsls	r1, r1, #8
 8000174:	ba12      	rev	r2, r2
 8000176:	0c03      	lsrs	r3, r0, #16
 8000178:	428b      	cmp	r3, r1
 800017a:	d302      	bcc.n	8000182 <__udivsi3+0x32>
 800017c:	1212      	asrs	r2, r2, #8
 800017e:	0209      	lsls	r1, r1, #8
 8000180:	d065      	beq.n	800024e <__udivsi3+0xfe>
 8000182:	0b03      	lsrs	r3, r0, #12
 8000184:	428b      	cmp	r3, r1
 8000186:	d319      	bcc.n	80001bc <__udivsi3+0x6c>
 8000188:	e000      	b.n	800018c <__udivsi3+0x3c>
 800018a:	0a09      	lsrs	r1, r1, #8
 800018c:	0bc3      	lsrs	r3, r0, #15
 800018e:	428b      	cmp	r3, r1
 8000190:	d301      	bcc.n	8000196 <__udivsi3+0x46>
 8000192:	03cb      	lsls	r3, r1, #15
 8000194:	1ac0      	subs	r0, r0, r3
 8000196:	4152      	adcs	r2, r2
 8000198:	0b83      	lsrs	r3, r0, #14
 800019a:	428b      	cmp	r3, r1
 800019c:	d301      	bcc.n	80001a2 <__udivsi3+0x52>
 800019e:	038b      	lsls	r3, r1, #14
 80001a0:	1ac0      	subs	r0, r0, r3
 80001a2:	4152      	adcs	r2, r2
 80001a4:	0b43      	lsrs	r3, r0, #13
 80001a6:	428b      	cmp	r3, r1
 80001a8:	d301      	bcc.n	80001ae <__udivsi3+0x5e>
 80001aa:	034b      	lsls	r3, r1, #13
 80001ac:	1ac0      	subs	r0, r0, r3
 80001ae:	4152      	adcs	r2, r2
 80001b0:	0b03      	lsrs	r3, r0, #12
 80001b2:	428b      	cmp	r3, r1
 80001b4:	d301      	bcc.n	80001ba <__udivsi3+0x6a>
 80001b6:	030b      	lsls	r3, r1, #12
 80001b8:	1ac0      	subs	r0, r0, r3
 80001ba:	4152      	adcs	r2, r2
 80001bc:	0ac3      	lsrs	r3, r0, #11
 80001be:	428b      	cmp	r3, r1
 80001c0:	d301      	bcc.n	80001c6 <__udivsi3+0x76>
 80001c2:	02cb      	lsls	r3, r1, #11
 80001c4:	1ac0      	subs	r0, r0, r3
 80001c6:	4152      	adcs	r2, r2
 80001c8:	0a83      	lsrs	r3, r0, #10
 80001ca:	428b      	cmp	r3, r1
 80001cc:	d301      	bcc.n	80001d2 <__udivsi3+0x82>
 80001ce:	028b      	lsls	r3, r1, #10
 80001d0:	1ac0      	subs	r0, r0, r3
 80001d2:	4152      	adcs	r2, r2
 80001d4:	0a43      	lsrs	r3, r0, #9
 80001d6:	428b      	cmp	r3, r1
 80001d8:	d301      	bcc.n	80001de <__udivsi3+0x8e>
 80001da:	024b      	lsls	r3, r1, #9
 80001dc:	1ac0      	subs	r0, r0, r3
 80001de:	4152      	adcs	r2, r2
 80001e0:	0a03      	lsrs	r3, r0, #8
 80001e2:	428b      	cmp	r3, r1
 80001e4:	d301      	bcc.n	80001ea <__udivsi3+0x9a>
 80001e6:	020b      	lsls	r3, r1, #8
 80001e8:	1ac0      	subs	r0, r0, r3
 80001ea:	4152      	adcs	r2, r2
 80001ec:	d2cd      	bcs.n	800018a <__udivsi3+0x3a>
 80001ee:	09c3      	lsrs	r3, r0, #7
 80001f0:	428b      	cmp	r3, r1
 80001f2:	d301      	bcc.n	80001f8 <__udivsi3+0xa8>
 80001f4:	01cb      	lsls	r3, r1, #7
 80001f6:	1ac0      	subs	r0, r0, r3
 80001f8:	4152      	adcs	r2, r2
 80001fa:	0983      	lsrs	r3, r0, #6
 80001fc:	428b      	cmp	r3, r1
 80001fe:	d301      	bcc.n	8000204 <__udivsi3+0xb4>
 8000200:	018b      	lsls	r3, r1, #6
 8000202:	1ac0      	subs	r0, r0, r3
 8000204:	4152      	adcs	r2, r2
 8000206:	0943      	lsrs	r3, r0, #5
 8000208:	428b      	cmp	r3, r1
 800020a:	d301      	bcc.n	8000210 <__udivsi3+0xc0>
 800020c:	014b      	lsls	r3, r1, #5
 800020e:	1ac0      	subs	r0, r0, r3
 8000210:	4152      	adcs	r2, r2
 8000212:	0903      	lsrs	r3, r0, #4
 8000214:	428b      	cmp	r3, r1
 8000216:	d301      	bcc.n	800021c <__udivsi3+0xcc>
 8000218:	010b      	lsls	r3, r1, #4
 800021a:	1ac0      	subs	r0, r0, r3
 800021c:	4152      	adcs	r2, r2
 800021e:	08c3      	lsrs	r3, r0, #3
 8000220:	428b      	cmp	r3, r1
 8000222:	d301      	bcc.n	8000228 <__udivsi3+0xd8>
 8000224:	00cb      	lsls	r3, r1, #3
 8000226:	1ac0      	subs	r0, r0, r3
 8000228:	4152      	adcs	r2, r2
 800022a:	0883      	lsrs	r3, r0, #2
 800022c:	428b      	cmp	r3, r1
 800022e:	d301      	bcc.n	8000234 <__udivsi3+0xe4>
 8000230:	008b      	lsls	r3, r1, #2
 8000232:	1ac0      	subs	r0, r0, r3
 8000234:	4152      	adcs	r2, r2
 8000236:	0843      	lsrs	r3, r0, #1
 8000238:	428b      	cmp	r3, r1
 800023a:	d301      	bcc.n	8000240 <__udivsi3+0xf0>
 800023c:	004b      	lsls	r3, r1, #1
 800023e:	1ac0      	subs	r0, r0, r3
 8000240:	4152      	adcs	r2, r2
 8000242:	1a41      	subs	r1, r0, r1
 8000244:	d200      	bcs.n	8000248 <__udivsi3+0xf8>
 8000246:	4601      	mov	r1, r0
 8000248:	4152      	adcs	r2, r2
 800024a:	4610      	mov	r0, r2
 800024c:	4770      	bx	lr
 800024e:	e7ff      	b.n	8000250 <__udivsi3+0x100>
 8000250:	b501      	push	{r0, lr}
 8000252:	2000      	movs	r0, #0
 8000254:	f000 f806 	bl	8000264 <__aeabi_idiv0>
 8000258:	bd02      	pop	{r1, pc}
 800025a:	46c0      	nop			@ (mov r8, r8)

0800025c <__aeabi_uidivmod>:
 800025c:	2900      	cmp	r1, #0
 800025e:	d0f7      	beq.n	8000250 <__udivsi3+0x100>
 8000260:	e776      	b.n	8000150 <__udivsi3>
 8000262:	4770      	bx	lr

08000264 <__aeabi_idiv0>:
 8000264:	4770      	bx	lr
 8000266:	46c0      	nop			@ (mov r8, r8)

08000268 <MX_GPIO_Init>:
/* USER CODE END 1 */

/** Configure pins
*/
void MX_GPIO_Init(void)
{
 8000268:	b5f0      	push	{r4, r5, r6, r7, lr}

  GPIO_InitTypeDef GPIO_InitStruct = {0};

  /* GPIO Ports Clock Enable */
  __HAL_RCC_GPIOB_CLK_ENABLE();
 800026a:	2602      	movs	r6, #2
{
 800026c:	b08b      	sub	sp, #44	@ 0x2c
  GPIO_InitTypeDef GPIO_InitStruct = {0};
 800026e:	2214      	movs	r2, #20
 8000270:	2100      	movs	r1, #0
 8000272:	a805      	add	r0, sp, #20
 8000274:	f003 f9a1 	bl	80035ba <memset>
  __HAL_RCC_GPIOC_CLK_ENABLE();
 8000278:	2104      	movs	r1, #4
  __HAL_RCC_GPIOA_CLK_ENABLE();
 800027a:	2401      	movs	r4, #1
  __HAL_RCC_GPIOB_CLK_ENABLE();
 800027c:	4b2e      	ldr	r3, [pc, #184]	@ (8000338 <MX_GPIO_Init+0xd0>)
  __HAL_RCC_GPIOD_CLK_ENABLE();

  /*Configure GPIO pin Output Level */
  HAL_GPIO_WritePin(GPIOA, LED_1_Pin|LED_2_Pin|LED_3_Pin|LED_4_Pin, GPIO_PIN_RESET);
 800027e:	27a0      	movs	r7, #160	@ 0xa0
  __HAL_RCC_GPIOB_CLK_ENABLE();
 8000280:	6b5a      	ldr	r2, [r3, #52]	@ 0x34
  /*Configure GPIO pin Output Level */
  HAL_GPIO_WritePin(LED_5_GPIO_Port, LED_5_Pin, GPIO_PIN_RESET);

  /*Configure GPIO pins : IN_3_Pin IN_2_Pin */
  GPIO_InitStruct.Pin = IN_3_Pin|IN_2_Pin;
  GPIO_InitStruct.Mode = GPIO_MODE_INPUT;
 8000282:	2500      	movs	r5, #0
  __HAL_RCC_GPIOB_CLK_ENABLE();
 8000284:	4332      	orrs	r2, r6
 8000286:	635a      	str	r2, [r3, #52]	@ 0x34
 8000288:	6b5a      	ldr	r2, [r3, #52]	@ 0x34
  HAL_GPIO_WritePin(GPIOA, LED_1_Pin|LED_2_Pin|LED_3_Pin|LED_4_Pin, GPIO_PIN_RESET);
 800028a:	05ff      	lsls	r7, r7, #23
  __HAL_RCC_GPIOB_CLK_ENABLE();
 800028c:	4032      	ands	r2, r6
 800028e:	9201      	str	r2, [sp, #4]
 8000290:	9a01      	ldr	r2, [sp, #4]
  __HAL_RCC_GPIOC_CLK_ENABLE();
 8000292:	6b5a      	ldr	r2, [r3, #52]	@ 0x34
  HAL_GPIO_WritePin(GPIOA, LED_1_Pin|LED_2_Pin|LED_3_Pin|LED_4_Pin, GPIO_PIN_RESET);
 8000294:	0038      	movs	r0, r7
  __HAL_RCC_GPIOC_CLK_ENABLE();
 8000296:	430a      	orrs	r2, r1
 8000298:	635a      	str	r2, [r3, #52]	@ 0x34
 800029a:	6b5a      	ldr	r2, [r3, #52]	@ 0x34
 800029c:	400a      	ands	r2, r1
 800029e:	9202      	str	r2, [sp, #8]
 80002a0:	9a02      	ldr	r2, [sp, #8]
  __HAL_RCC_GPIOA_CLK_ENABLE();
 80002a2:	6b5a      	ldr	r2, [r3, #52]	@ 0x34
  __HAL_RCC_GPIOD_CLK_ENABLE();
 80002a4:	1849      	adds	r1, r1, r1
  __HAL_RCC_GPIOA_CLK_ENABLE();
 80002a6:	4322      	orrs	r2, r4
 80002a8:	635a      	str	r2, [r3, #52]	@ 0x34
 80002aa:	6b5a      	ldr	r2, [r3, #52]	@ 0x34
 80002ac:	4022      	ands	r2, r4
 80002ae:	9203      	str	r2, [sp, #12]
 80002b0:	9a03      	ldr	r2, [sp, #12]
  __HAL_RCC_GPIOD_CLK_ENABLE();
 80002b2:	6b5a      	ldr	r2, [r3, #52]	@ 0x34
 80002b4:	430a      	orrs	r2, r1
 80002b6:	635a      	str	r2, [r3, #52]	@ 0x34
 80002b8:	6b5b      	ldr	r3, [r3, #52]	@ 0x34
  HAL_GPIO_WritePin(GPIOA, LED_1_Pin|LED_2_Pin|LED_3_Pin|LED_4_Pin, GPIO_PIN_RESET);
 80002ba:	2200      	movs	r2, #0
  __HAL_RCC_GPIOD_CLK_ENABLE();
 80002bc:	400b      	ands	r3, r1
 80002be:	9304      	str	r3, [sp, #16]
  HAL_GPIO_WritePin(GPIOA, LED_1_Pin|LED_2_Pin|LED_3_Pin|LED_4_Pin, GPIO_PIN_RESET);
 80002c0:	31e8      	adds	r1, #232	@ 0xe8
  __HAL_RCC_GPIOD_CLK_ENABLE();
 80002c2:	9b04      	ldr	r3, [sp, #16]
  HAL_GPIO_WritePin(GPIOA, LED_1_Pin|LED_2_Pin|LED_3_Pin|LED_4_Pin, GPIO_PIN_RESET);
 80002c4:	f000 fc26 	bl	8000b14 <HAL_GPIO_WritePin>
  HAL_GPIO_WritePin(LED_5_GPIO_Port, LED_5_Pin, GPIO_PIN_RESET);
 80002c8:	2200      	movs	r2, #0
 80002ca:	0021      	movs	r1, r4
 80002cc:	481b      	ldr	r0, [pc, #108]	@ (800033c <MX_GPIO_Init+0xd4>)
 80002ce:	f000 fc21 	bl	8000b14 <HAL_GPIO_WritePin>
  GPIO_InitStruct.Pin = IN_3_Pin|IN_2_Pin;
 80002d2:	4b1b      	ldr	r3, [pc, #108]	@ (8000340 <MX_GPIO_Init+0xd8>)
  GPIO_InitStruct.Pull = GPIO_PULLUP;
  HAL_GPIO_Init(GPIOB, &GPIO_InitStruct);
 80002d4:	a905      	add	r1, sp, #20
 80002d6:	4819      	ldr	r0, [pc, #100]	@ (800033c <MX_GPIO_Init+0xd4>)
  GPIO_InitStruct.Pin = IN_3_Pin|IN_2_Pin;
 80002d8:	9305      	str	r3, [sp, #20]
  GPIO_InitStruct.Mode = GPIO_MODE_INPUT;
 80002da:	9506      	str	r5, [sp, #24]
  GPIO_InitStruct.Pull = GPIO_PULLUP;
 80002dc:	9407      	str	r4, [sp, #28]
  HAL_GPIO_Init(GPIOB, &GPIO_InitStruct);
 80002de:	f000 fb5b 	bl	8000998 <HAL_GPIO_Init>

  /*Configure GPIO pins : IN_4_Pin IN_5_Pin */
  GPIO_InitStruct.Pin = IN_4_Pin|IN_5_Pin;
 80002e2:	23c0      	movs	r3, #192	@ 0xc0
  GPIO_InitStruct.Mode = GPIO_MODE_INPUT;
  GPIO_InitStruct.Pull = GPIO_PULLUP;
  HAL_GPIO_Init(GPIOC, &GPIO_InitStruct);
 80002e4:	a905      	add	r1, sp, #20
  GPIO_InitStruct.Pin = IN_4_Pin|IN_5_Pin;
 80002e6:	021b      	lsls	r3, r3, #8
  HAL_GPIO_Init(GPIOC, &GPIO_InitStruct);
 80002e8:	4816      	ldr	r0, [pc, #88]	@ (8000344 <MX_GPIO_Init+0xdc>)
  GPIO_InitStruct.Pin = IN_4_Pin|IN_5_Pin;
 80002ea:	9305      	str	r3, [sp, #20]
  GPIO_InitStruct.Mode = GPIO_MODE_INPUT;
 80002ec:	9506      	str	r5, [sp, #24]
  GPIO_InitStruct.Pull = GPIO_PULLUP;
 80002ee:	9407      	str	r4, [sp, #28]
  HAL_GPIO_Init(GPIOC, &GPIO_InitStruct);
 80002f0:	f000 fb52 	bl	8000998 <HAL_GPIO_Init>

  /*Configure GPIO pin : IN_1_Pin */
  GPIO_InitStruct.Pin = IN_1_Pin;
  GPIO_InitStruct.Mode = GPIO_MODE_INPUT;
  GPIO_InitStruct.Pull = GPIO_PULLUP;
  HAL_GPIO_Init(IN_1_GPIO_Port, &GPIO_InitStruct);
 80002f4:	0038      	movs	r0, r7
 80002f6:	a905      	add	r1, sp, #20
  GPIO_InitStruct.Pin = IN_1_Pin;
 80002f8:	9605      	str	r6, [sp, #20]
  GPIO_InitStruct.Mode = GPIO_MODE_INPUT;
 80002fa:	9506      	str	r5, [sp, #24]
  GPIO_InitStruct.Pull = GPIO_PULLUP;
 80002fc:	9407      	str	r4, [sp, #28]
  HAL_GPIO_Init(IN_1_GPIO_Port, &GPIO_InitStruct);
 80002fe:	f000 fb4b 	bl	8000998 <HAL_GPIO_Init>

  /*Configure GPIO pins : LED_1_Pin LED_2_Pin LED_3_Pin LED_4_Pin */
  GPIO_InitStruct.Pin = LED_1_Pin|LED_2_Pin|LED_3_Pin|LED_4_Pin;
 8000302:	23f0      	movs	r3, #240	@ 0xf0
  GPIO_InitStruct.Mode = GPIO_MODE_OUTPUT_PP;
  GPIO_InitStruct.Pull = GPIO_NOPULL;
  GPIO_InitStruct.Speed = GPIO_SPEED_FREQ_LOW;
  HAL_GPIO_Init(GPIOA, &GPIO_InitStruct);
 8000304:	0038      	movs	r0, r7
 8000306:	a905      	add	r1, sp, #20
  GPIO_InitStruct.Pin = LED_1_Pin|LED_2_Pin|LED_3_Pin|LED_4_Pin;
 8000308:	9305      	str	r3, [sp, #20]
  GPIO_InitStruct.Mode = GPIO_MODE_OUTPUT_PP;
 800030a:	9406      	str	r4, [sp, #24]
  GPIO_InitStruct.Pull = GPIO_NOPULL;
 800030c:	9507      	str	r5, [sp, #28]
  GPIO_InitStruct.Speed = GPIO_SPEED_FREQ_LOW;
 800030e:	9508      	str	r5, [sp, #32]
  HAL_GPIO_Init(GPIOA, &GPIO_InitStruct);
 8000310:	f000 fb42 	bl	8000998 <HAL_GPIO_Init>
  /*Configure GPIO pin : LED_5_Pin */
  GPIO_InitStruct.Pin = LED_5_Pin;
  GPIO_InitStruct.Mode = GPIO_MODE_OUTPUT_PP;
  GPIO_InitStruct.Pull = GPIO_NOPULL;
  GPIO_InitStruct.Speed = GPIO_SPEED_FREQ_LOW;
  HAL_GPIO_Init(LED_5_GPIO_Port, &GPIO_InitStruct);
 8000314:	a905      	add	r1, sp, #20
 8000316:	4809      	ldr	r0, [pc, #36]	@ (800033c <MX_GPIO_Init+0xd4>)
  GPIO_InitStruct.Pin = LED_5_Pin;
 8000318:	9405      	str	r4, [sp, #20]
  GPIO_InitStruct.Mode = GPIO_MODE_OUTPUT_PP;
 800031a:	9406      	str	r4, [sp, #24]
  GPIO_InitStruct.Pull = GPIO_NOPULL;
 800031c:	9507      	str	r5, [sp, #28]
  GPIO_InitStruct.Speed = GPIO_SPEED_FREQ_LOW;
 800031e:	9508      	str	r5, [sp, #32]
  HAL_GPIO_Init(LED_5_GPIO_Port, &GPIO_InitStruct);
 8000320:	f000 fb3a 	bl	8000998 <HAL_GPIO_Init>

  /*Configure GPIO pins : IN_6_Pin IN_7_Pin IN_8_Pin IN_9_Pin */
  GPIO_InitStruct.Pin = IN_6_Pin|IN_7_Pin|IN_8_Pin|IN_9_Pin;
 8000324:	230f      	movs	r3, #15
  GPIO_InitStruct.Mode = GPIO_MODE_INPUT;
  GPIO_InitStruct.Pull = GPIO_PULLUP;
  HAL_GPIO_Init(GPIOD, &GPIO_InitStruct);
 8000326:	4808      	ldr	r0, [pc, #32]	@ (8000348 <MX_GPIO_Init+0xe0>)
 8000328:	a905      	add	r1, sp, #20
  GPIO_InitStruct.Pin = IN_6_Pin|IN_7_Pin|IN_8_Pin|IN_9_Pin;
 800032a:	9305      	str	r3, [sp, #20]
  GPIO_InitStruct.Mode = GPIO_MODE_INPUT;
 800032c:	9506      	str	r5, [sp, #24]
  GPIO_InitStruct.Pull = GPIO_PULLUP;
 800032e:	9407      	str	r4, [sp, #28]
  HAL_GPIO_Init(GPIOD, &GPIO_InitStruct);
 8000330:	f000 fb32 	bl	8000998 <HAL_GPIO_Init>

}
 8000334:	b00b      	add	sp, #44	@ 0x2c
 8000336:	bdf0      	pop	{r4, r5, r6, r7, pc}
 8000338:	40021000 	.word	0x40021000
 800033c:	50000400 	.word	0x50000400
 8000340:	00000202 	.word	0x00000202
 8000344:	50000800 	.word	0x50000800
 8000348:	50000c00 	.word	0x50000c00

0800034c <GPIO_Poll>:

/* USER CODE BEGIN 2 */
void GPIO_Poll (uint16_t * p_button_state)
{
 800034c:	b5f8      	push	{r3, r4, r5, r6, r7, lr}
	*p_button_state = 0;
 800034e:	2300      	movs	r3, #0
{
 8000350:	0004      	movs	r4, r0
	*p_button_state = 0;
 8000352:	8003      	strh	r3, [r0, #0]
	*p_button_state |= HAL_GPIO_ReadPin(BTN1_GPIO_Port, BTN1_Pin);
 8000354:	20a0      	movs	r0, #160	@ 0xa0
 8000356:	2102      	movs	r1, #2
 8000358:	05c0      	lsls	r0, r0, #23
 800035a:	f000 fbd5 	bl	8000b08 <HAL_GPIO_ReadPin>
 800035e:	8823      	ldrh	r3, [r4, #0]
	*p_button_state |= HAL_GPIO_ReadPin(BTN2_GPIO_Port, BTN2_Pin) << 1;
 8000360:	4d25      	ldr	r5, [pc, #148]	@ (80003f8 <GPIO_Poll+0xac>)
	*p_button_state |= HAL_GPIO_ReadPin(BTN1_GPIO_Port, BTN1_Pin);
 8000362:	4318      	orrs	r0, r3
 8000364:	8020      	strh	r0, [r4, #0]
	*p_button_state |= HAL_GPIO_ReadPin(BTN2_GPIO_Port, BTN2_Pin) << 1;
 8000366:	2108      	movs	r1, #8
 8000368:	0028      	movs	r0, r5
 800036a:	f000 fbcd 	bl	8000b08 <HAL_GPIO_ReadPin>
	*p_button_state |= HAL_GPIO_ReadPin(BTN3_GPIO_Port, BTN3_Pin) << 2;
 800036e:	2180      	movs	r1, #128	@ 0x80
	*p_button_state |= HAL_GPIO_ReadPin(BTN2_GPIO_Port, BTN2_Pin) << 1;
 8000370:	0043      	lsls	r3, r0, #1
 8000372:	8820      	ldrh	r0, [r4, #0]
	*p_button_state |= HAL_GPIO_ReadPin(BTN3_GPIO_Port, BTN3_Pin) << 2;
 8000374:	4e21      	ldr	r6, [pc, #132]	@ (80003fc <GPIO_Poll+0xb0>)
	*p_button_state |= HAL_GPIO_ReadPin(BTN2_GPIO_Port, BTN2_Pin) << 1;
 8000376:	4318      	orrs	r0, r3
 8000378:	8020      	strh	r0, [r4, #0]
	*p_button_state |= HAL_GPIO_ReadPin(BTN3_GPIO_Port, BTN3_Pin) << 2;
 800037a:	0089      	lsls	r1, r1, #2
 800037c:	0030      	movs	r0, r6
 800037e:	f000 fbc3 	bl	8000b08 <HAL_GPIO_ReadPin>
	*p_button_state |= HAL_GPIO_ReadPin(BTN4_GPIO_Port, BTN4_Pin) << 3;
 8000382:	2180      	movs	r1, #128	@ 0x80
	*p_button_state |= HAL_GPIO_ReadPin(BTN3_GPIO_Port, BTN3_Pin) << 2;
 8000384:	0083      	lsls	r3, r0, #2
 8000386:	8820      	ldrh	r0, [r4, #0]
	*p_button_state |= HAL_GPIO_ReadPin(BTN4_GPIO_Port, BTN4_Pin) << 3;
 8000388:	4f1d      	ldr	r7, [pc, #116]	@ (8000400 <GPIO_Poll+0xb4>)
	*p_button_state |= HAL_GPIO_ReadPin(BTN3_GPIO_Port, BTN3_Pin) << 2;
 800038a:	4318      	orrs	r0, r3
 800038c:	8020      	strh	r0, [r4, #0]
	*p_button_state |= HAL_GPIO_ReadPin(BTN4_GPIO_Port, BTN4_Pin) << 3;
 800038e:	01c9      	lsls	r1, r1, #7
 8000390:	0038      	movs	r0, r7
 8000392:	f000 fbb9 	bl	8000b08 <HAL_GPIO_ReadPin>
	*p_button_state |= HAL_GPIO_ReadPin(BTN5_GPIO_Port, BTN5_Pin) << 4;
 8000396:	2180      	movs	r1, #128	@ 0x80
	*p_button_state |= HAL_GPIO_ReadPin(BTN4_GPIO_Port, BTN4_Pin) << 3;
 8000398:	00c3      	lsls	r3, r0, #3
 800039a:	8820      	ldrh	r0, [r4, #0]
	*p_button_state |= HAL_GPIO_ReadPin(BTN5_GPIO_Port, BTN5_Pin) << 4;
 800039c:	0209      	lsls	r1, r1, #8
	*p_button_state |= HAL_GPIO_ReadPin(BTN4_GPIO_Port, BTN4_Pin) << 3;
 800039e:	4318      	orrs	r0, r3
 80003a0:	8020      	strh	r0, [r4, #0]
	*p_button_state |= HAL_GPIO_ReadPin(BTN5_GPIO_Port, BTN5_Pin) << 4;
 80003a2:	0038      	movs	r0, r7
 80003a4:	f000 fbb0 	bl	8000b08 <HAL_GPIO_ReadPin>
 80003a8:	0103      	lsls	r3, r0, #4
 80003aa:	8820      	ldrh	r0, [r4, #0]
	*p_button_state |= HAL_GPIO_ReadPin(BTN6_GPIO_Port, BTN6_Pin) << 5;
 80003ac:	2101      	movs	r1, #1
	*p_button_state |= HAL_GPIO_ReadPin(BTN5_GPIO_Port, BTN5_Pin) << 4;
 80003ae:	4318      	orrs	r0, r3
 80003b0:	8020      	strh	r0, [r4, #0]
	*p_button_state |= HAL_GPIO_ReadPin(BTN6_GPIO_Port, BTN6_Pin) << 5;
 80003b2:	0028      	movs	r0, r5
 80003b4:	f000 fba8 	bl	8000b08 <HAL_GPIO_ReadPin>
 80003b8:	0143      	lsls	r3, r0, #5
 80003ba:	8820      	ldrh	r0, [r4, #0]
	*p_button_state |= HAL_GPIO_ReadPin(BTN7_GPIO_Port, BTN7_Pin) << 6;
 80003bc:	2102      	movs	r1, #2
	*p_button_state |= HAL_GPIO_ReadPin(BTN6_GPIO_Port, BTN6_Pin) << 5;
 80003be:	4318      	orrs	r0, r3
 80003c0:	8020      	strh	r0, [r4, #0]
	*p_button_state |= HAL_GPIO_ReadPin(BTN7_GPIO_Port, BTN7_Pin) << 6;
 80003c2:	0028      	movs	r0, r5
 80003c4:	f000 fba0 	bl	8000b08 <HAL_GPIO_ReadPin>
 80003c8:	0183      	lsls	r3, r0, #6
 80003ca:	8820      	ldrh	r0, [r4, #0]
	*p_button_state |= HAL_GPIO_ReadPin(BTN8_GPIO_Port, BTN8_Pin) << 7;
 80003cc:	2104      	movs	r1, #4
	*p_button_state |= HAL_GPIO_ReadPin(BTN7_GPIO_Port, BTN7_Pin) << 6;
 80003ce:	4318      	orrs	r0, r3
 80003d0:	8020      	strh	r0, [r4, #0]
	*p_button_state |= HAL_GPIO_ReadPin(BTN8_GPIO_Port, BTN8_Pin) << 7;
 80003d2:	0028      	movs	r0, r5
 80003d4:	f000 fb98 	bl	8000b08 <HAL_GPIO_ReadPin>
 80003d8:	01c3      	lsls	r3, r0, #7
 80003da:	8820      	ldrh	r0, [r4, #0]
	*p_button_state |= HAL_GPIO_ReadPin(BTN9_GPIO_Port, BTN9_Pin) << 8;
 80003dc:	2102      	movs	r1, #2
	*p_button_state |= HAL_GPIO_ReadPin(BTN8_GPIO_Port, BTN8_Pin) << 7;
 80003de:	4318      	orrs	r0, r3
 80003e0:	8020      	strh	r0, [r4, #0]
	*p_button_state |= HAL_GPIO_ReadPin(BTN9_GPIO_Port, BTN9_Pin) << 8;
 80003e2:	0030      	movs	r0, r6
 80003e4:	f000 fb90 	bl	8000b08 <HAL_GPIO_ReadPin>
 80003e8:	8823      	ldrh	r3, [r4, #0]
 80003ea:	0200      	lsls	r0, r0, #8
 80003ec:	4303      	orrs	r3, r0
	*p_button_state ^= 0x0FFF;
 80003ee:	4805      	ldr	r0, [pc, #20]	@ (8000404 <GPIO_Poll+0xb8>)
 80003f0:	4058      	eors	r0, r3
 80003f2:	8020      	strh	r0, [r4, #0]
}
 80003f4:	bdf8      	pop	{r3, r4, r5, r6, r7, pc}
 80003f6:	46c0      	nop			@ (mov r8, r8)
 80003f8:	50000c00 	.word	0x50000c00
 80003fc:	50000400 	.word	0x50000400
 8000400:	50000800 	.word	0x50000800
 8000404:	00000fff 	.word	0x00000fff

08000408 <SystemClock_Config>:
/**
  * @brief System Clock Configuration
  * @retval None
  */
void SystemClock_Config(void)
{
 8000408:	b500      	push	{lr}
 800040a:	b095      	sub	sp, #84	@ 0x54
  RCC_OscInitTypeDef RCC_OscInitStruct = {0};
 800040c:	223c      	movs	r2, #60	@ 0x3c
 800040e:	2100      	movs	r1, #0
 8000410:	a805      	add	r0, sp, #20
 8000412:	f003 f8d2 	bl	80035ba <memset>
  RCC_ClkInitTypeDef RCC_ClkInitStruct = {0};
 8000416:	2100      	movs	r1, #0
 8000418:	2210      	movs	r2, #16
 800041a:	a801      	add	r0, sp, #4
 800041c:	f003 f8cd 	bl	80035ba <memset>

  /** Configure the main internal regulator output voltage
  */
  HAL_PWREx_ControlVoltageScaling(PWR_REGULATOR_VOLTAGE_SCALE1);
 8000420:	2080      	movs	r0, #128	@ 0x80
 8000422:	0080      	lsls	r0, r0, #2
 8000424:	f001 f9a0 	bl	8001768 <HAL_PWREx_ControlVoltageScaling>

  /** Initializes the RCC Oscillators according to the specified parameters
  * in the RCC_OscInitTypeDef structure.
  */
  RCC_OscInitStruct.OscillatorType = RCC_OSCILLATORTYPE_HSI|RCC_OSCILLATORTYPE_HSI48;
 8000428:	2322      	movs	r3, #34	@ 0x22
 800042a:	9305      	str	r3, [sp, #20]
  RCC_OscInitStruct.HSIState = RCC_HSI_ON;
 800042c:	33de      	adds	r3, #222	@ 0xde
 800042e:	9308      	str	r3, [sp, #32]
  RCC_OscInitStruct.HSI48State = RCC_HSI48_ON;
 8000430:	2380      	movs	r3, #128	@ 0x80
 8000432:	03db      	lsls	r3, r3, #15
  RCC_OscInitStruct.HSIDiv = RCC_HSI_DIV1;
  RCC_OscInitStruct.HSICalibrationValue = RCC_HSICALIBRATION_DEFAULT;
 8000434:	2240      	movs	r2, #64	@ 0x40
  RCC_OscInitStruct.HSI48State = RCC_HSI48_ON;
 8000436:	930c      	str	r3, [sp, #48]	@ 0x30
  RCC_OscInitStruct.HSIDiv = RCC_HSI_DIV1;
 8000438:	2300      	movs	r3, #0
  RCC_OscInitStruct.PLL.PLLState = RCC_PLL_NONE;
  if (HAL_RCC_OscConfig(&RCC_OscInitStruct) != HAL_OK)
 800043a:	a805      	add	r0, sp, #20
  RCC_OscInitStruct.HSIDiv = RCC_HSI_DIV1;
 800043c:	9309      	str	r3, [sp, #36]	@ 0x24
  RCC_OscInitStruct.HSICalibrationValue = RCC_HSICALIBRATION_DEFAULT;
 800043e:	920a      	str	r2, [sp, #40]	@ 0x28
  RCC_OscInitStruct.PLL.PLLState = RCC_PLL_NONE;
 8000440:	930d      	str	r3, [sp, #52]	@ 0x34
  if (HAL_RCC_OscConfig(&RCC_OscInitStruct) != HAL_OK)
 8000442:	f001 f9bd 	bl	80017c0 <HAL_RCC_OscConfig>
 8000446:	1e01      	subs	r1, r0, #0
 8000448:	d001      	beq.n	800044e <SystemClock_Config+0x46>
  \details Disables IRQ interrupts by setting the I-bit in the CPSR.
           Can only be executed in Privileged modes.
 */
__STATIC_FORCEINLINE void __disable_irq(void)
{
  __ASM volatile ("cpsid i" : : : "memory");
 800044a:	b672      	cpsid	i
void Error_Handler(void)
{
  /* USER CODE BEGIN Error_Handler_Debug */
  /* User can add his own implementation to report the HAL error return state */
  __disable_irq();
  while (1)
 800044c:	e7fe      	b.n	800044c <SystemClock_Config+0x44>
  RCC_ClkInitStruct.ClockType = RCC_CLOCKTYPE_HCLK|RCC_CLOCKTYPE_SYSCLK
 800044e:	2307      	movs	r3, #7
  RCC_ClkInitStruct.SYSCLKSource = RCC_SYSCLKSOURCE_HSI;
 8000450:	9002      	str	r0, [sp, #8]
  RCC_ClkInitStruct.AHBCLKDivider = RCC_SYSCLK_DIV1;
 8000452:	9003      	str	r0, [sp, #12]
  RCC_ClkInitStruct.APB1CLKDivider = RCC_HCLK_DIV1;
 8000454:	9004      	str	r0, [sp, #16]
  if (HAL_RCC_ClockConfig(&RCC_ClkInitStruct, FLASH_LATENCY_0) != HAL_OK)
 8000456:	a801      	add	r0, sp, #4
  RCC_ClkInitStruct.ClockType = RCC_CLOCKTYPE_HCLK|RCC_CLOCKTYPE_SYSCLK
 8000458:	9301      	str	r3, [sp, #4]
  if (HAL_RCC_ClockConfig(&RCC_ClkInitStruct, FLASH_LATENCY_0) != HAL_OK)
 800045a:	f001 fc49 	bl	8001cf0 <HAL_RCC_ClockConfig>
 800045e:	2800      	cmp	r0, #0
 8000460:	d001      	beq.n	8000466 <SystemClock_Config+0x5e>
 8000462:	b672      	cpsid	i
  while (1)
 8000464:	e7fe      	b.n	8000464 <SystemClock_Config+0x5c>
}
 8000466:	b015      	add	sp, #84	@ 0x54
 8000468:	bd00      	pop	{pc}
	...

0800046c <main>:
{
 800046c:	b5f7      	push	{r0, r1, r2, r4, r5, r6, r7, lr}
else HAL_GPIO_WritePin(LED_1_GPIO_Port, LED_1_Pin, 0);
 800046e:	25a0      	movs	r5, #160	@ 0xa0
			if (HAL_GPIO_ReadPin(IN_3_GPIO_Port, IN_3_Pin)==0)
 8000470:	2780      	movs	r7, #128	@ 0x80
  HAL_Init();
 8000472:	f000 fa0f 	bl	8000894 <HAL_Init>
uint32_t ledFlash=0;
 8000476:	2600      	movs	r6, #0
  SystemClock_Config();
 8000478:	f7ff ffc6 	bl	8000408 <SystemClock_Config>
  MX_GPIO_Init();
 800047c:	f7ff fef4 	bl	8000268 <MX_GPIO_Init>
  MX_USB_Device_Init();
 8000480:	f002 fe92 	bl	80031a8 <MX_USB_Device_Init>
else HAL_GPIO_WritePin(LED_1_GPIO_Port, LED_1_Pin, 0);
 8000484:	05ed      	lsls	r5, r5, #23
			if (HAL_GPIO_ReadPin(IN_3_GPIO_Port, IN_3_Pin)==0)
 8000486:	00bf      	lsls	r7, r7, #2
if (ledFlash<20000) ledFlash++;
 8000488:	4b67      	ldr	r3, [pc, #412]	@ (8000628 <main+0x1bc>)
 800048a:	429e      	cmp	r6, r3
 800048c:	d100      	bne.n	8000490 <main+0x24>
 800048e:	e0c8      	b.n	8000622 <main+0x1b6>
if (ledFlash>18000) HAL_GPIO_WritePin(LED_1_GPIO_Port, LED_1_Pin, 1);
 8000490:	4b66      	ldr	r3, [pc, #408]	@ (800062c <main+0x1c0>)
if (ledFlash<20000) ledFlash++;
 8000492:	3601      	adds	r6, #1
if (ledFlash>18000) HAL_GPIO_WritePin(LED_1_GPIO_Port, LED_1_Pin, 1);
 8000494:	2201      	movs	r2, #1
 8000496:	429e      	cmp	r6, r3
 8000498:	d800      	bhi.n	800049c <main+0x30>
else HAL_GPIO_WritePin(LED_1_GPIO_Port, LED_1_Pin, 0);
 800049a:	2200      	movs	r2, #0
 800049c:	2110      	movs	r1, #16
 800049e:	0028      	movs	r0, r5
 80004a0:	f000 fb38 	bl	8000b14 <HAL_GPIO_WritePin>
HAL_GPIO_WritePin(LED_2_GPIO_Port, LED_2_Pin, 0);
 80004a4:	2120      	movs	r1, #32
 80004a6:	2200      	movs	r2, #0
 80004a8:	0028      	movs	r0, r5
 80004aa:	f000 fb33 	bl	8000b14 <HAL_GPIO_WritePin>
			GPIO_Poll(&buttons_state);
 80004ae:	4b60      	ldr	r3, [pc, #384]	@ (8000630 <main+0x1c4>)
 80004b0:	0018      	movs	r0, r3
 80004b2:	9301      	str	r3, [sp, #4]
 80004b4:	f7ff ff4a 	bl	800034c <GPIO_Poll>
			report_data[0]=0;		 //x axis
 80004b8:	2300      	movs	r3, #0
 80004ba:	4c5e      	ldr	r4, [pc, #376]	@ (8000634 <main+0x1c8>)
			if (HAL_GPIO_ReadPin(IN_3_GPIO_Port, IN_3_Pin)==0)
 80004bc:	0039      	movs	r1, r7
 80004be:	485e      	ldr	r0, [pc, #376]	@ (8000638 <main+0x1cc>)
			report_data[0]=0;		 //x axis
 80004c0:	8023      	strh	r3, [r4, #0]
			report_data[1]=0;		//y axis
 80004c2:	8063      	strh	r3, [r4, #2]
			if (HAL_GPIO_ReadPin(IN_3_GPIO_Port, IN_3_Pin)==0)
 80004c4:	f000 fb20 	bl	8000b08 <HAL_GPIO_ReadPin>
 80004c8:	2800      	cmp	r0, #0
 80004ca:	d107      	bne.n	80004dc <main+0x70>
						report_data[1]=-32767;		//y Axis
 80004cc:	4b5b      	ldr	r3, [pc, #364]	@ (800063c <main+0x1d0>)
						report_data[0]=0;			//x Axis (North)
 80004ce:	8020      	strh	r0, [r4, #0]
						HAL_GPIO_WritePin(LED_2_GPIO_Port, LED_2_Pin, 1);
 80004d0:	2201      	movs	r2, #1
 80004d2:	2120      	movs	r1, #32
 80004d4:	0028      	movs	r0, r5
						report_data[1]=-32767;		//y Axis
 80004d6:	8063      	strh	r3, [r4, #2]
						HAL_GPIO_WritePin(LED_2_GPIO_Port, LED_2_Pin, 1);
 80004d8:	f000 fb1c 	bl	8000b14 <HAL_GPIO_WritePin>
			if (HAL_GPIO_ReadPin(IN_4_GPIO_Port, IN_4_Pin)==0)
 80004dc:	2180      	movs	r1, #128	@ 0x80
 80004de:	4858      	ldr	r0, [pc, #352]	@ (8000640 <main+0x1d4>)
 80004e0:	01c9      	lsls	r1, r1, #7
 80004e2:	f000 fb11 	bl	8000b08 <HAL_GPIO_ReadPin>
 80004e6:	2800      	cmp	r0, #0
 80004e8:	d107      	bne.n	80004fa <main+0x8e>
						report_data[1]=32767;		//y (South)
 80004ea:	4b56      	ldr	r3, [pc, #344]	@ (8000644 <main+0x1d8>)
						report_data[0]=0;			//x
 80004ec:	8020      	strh	r0, [r4, #0]
						HAL_GPIO_WritePin(LED_2_GPIO_Port, LED_2_Pin, 1);
 80004ee:	2201      	movs	r2, #1
 80004f0:	2120      	movs	r1, #32
 80004f2:	0028      	movs	r0, r5
						report_data[1]=32767;		//y (South)
 80004f4:	8063      	strh	r3, [r4, #2]
						HAL_GPIO_WritePin(LED_2_GPIO_Port, LED_2_Pin, 1);
 80004f6:	f000 fb0d 	bl	8000b14 <HAL_GPIO_WritePin>
			if (HAL_GPIO_ReadPin(IN_5_GPIO_Port, IN_5_Pin)==0)
 80004fa:	2180      	movs	r1, #128	@ 0x80
 80004fc:	4850      	ldr	r0, [pc, #320]	@ (8000640 <main+0x1d4>)
 80004fe:	0209      	lsls	r1, r1, #8
 8000500:	f000 fb02 	bl	8000b08 <HAL_GPIO_ReadPin>
 8000504:	2800      	cmp	r0, #0
 8000506:	d107      	bne.n	8000518 <main+0xac>
						report_data[0]=-32767;	//X (east)
 8000508:	4b4c      	ldr	r3, [pc, #304]	@ (800063c <main+0x1d0>)
						report_data[1]=0;
 800050a:	8060      	strh	r0, [r4, #2]
						HAL_GPIO_WritePin(LED_2_GPIO_Port, LED_2_Pin, 1);
 800050c:	2201      	movs	r2, #1
 800050e:	2120      	movs	r1, #32
 8000510:	0028      	movs	r0, r5
						report_data[0]=-32767;	//X (east)
 8000512:	8023      	strh	r3, [r4, #0]
						HAL_GPIO_WritePin(LED_2_GPIO_Port, LED_2_Pin, 1);
 8000514:	f000 fafe 	bl	8000b14 <HAL_GPIO_WritePin>
			if (HAL_GPIO_ReadPin(IN_6_GPIO_Port, IN_6_Pin)==0)
 8000518:	2101      	movs	r1, #1
 800051a:	484b      	ldr	r0, [pc, #300]	@ (8000648 <main+0x1dc>)
 800051c:	f000 faf4 	bl	8000b08 <HAL_GPIO_ReadPin>
 8000520:	2800      	cmp	r0, #0
 8000522:	d107      	bne.n	8000534 <main+0xc8>
						report_data[0]=32767;		//x (west)
 8000524:	4b47      	ldr	r3, [pc, #284]	@ (8000644 <main+0x1d8>)
						report_data[1]=0;
 8000526:	8060      	strh	r0, [r4, #2]
						HAL_GPIO_WritePin(LED_2_GPIO_Port, LED_2_Pin, 1);
 8000528:	2201      	movs	r2, #1
 800052a:	2120      	movs	r1, #32
 800052c:	0028      	movs	r0, r5
						report_data[0]=32767;		//x (west)
 800052e:	8023      	strh	r3, [r4, #0]
						HAL_GPIO_WritePin(LED_2_GPIO_Port, LED_2_Pin, 1);
 8000530:	f000 faf0 	bl	8000b14 <HAL_GPIO_WritePin>
			if ((HAL_GPIO_ReadPin(IN_3_GPIO_Port, IN_3_Pin)==0)&&(HAL_GPIO_ReadPin(IN_5_GPIO_Port, IN_5_Pin)==0))	// NorthEast
 8000534:	0039      	movs	r1, r7
 8000536:	4840      	ldr	r0, [pc, #256]	@ (8000638 <main+0x1cc>)
 8000538:	f000 fae6 	bl	8000b08 <HAL_GPIO_ReadPin>
 800053c:	2800      	cmp	r0, #0
 800053e:	d10f      	bne.n	8000560 <main+0xf4>
 8000540:	2180      	movs	r1, #128	@ 0x80
 8000542:	483f      	ldr	r0, [pc, #252]	@ (8000640 <main+0x1d4>)
 8000544:	0209      	lsls	r1, r1, #8
 8000546:	f000 fadf 	bl	8000b08 <HAL_GPIO_ReadPin>
 800054a:	2800      	cmp	r0, #0
 800054c:	d108      	bne.n	8000560 <main+0xf4>
						report_data[0]=32767;		// NE
 800054e:	4b3d      	ldr	r3, [pc, #244]	@ (8000644 <main+0x1d8>)
						HAL_GPIO_WritePin(LED_2_GPIO_Port, LED_2_Pin, 1);
 8000550:	2201      	movs	r2, #1
						report_data[0]=32767;		// NE
 8000552:	8023      	strh	r3, [r4, #0]
						report_data[1]=-32767;
 8000554:	4b39      	ldr	r3, [pc, #228]	@ (800063c <main+0x1d0>)
						HAL_GPIO_WritePin(LED_2_GPIO_Port, LED_2_Pin, 1);
 8000556:	2120      	movs	r1, #32
 8000558:	0028      	movs	r0, r5
						report_data[1]=-32767;
 800055a:	8063      	strh	r3, [r4, #2]
						HAL_GPIO_WritePin(LED_2_GPIO_Port, LED_2_Pin, 1);
 800055c:	f000 fada 	bl	8000b14 <HAL_GPIO_WritePin>
			if ((HAL_GPIO_ReadPin(IN_4_GPIO_Port, IN_4_Pin)==0)&&(HAL_GPIO_ReadPin(IN_5_GPIO_Port, IN_5_Pin)==0))	// SouthEast
 8000560:	2180      	movs	r1, #128	@ 0x80
 8000562:	4837      	ldr	r0, [pc, #220]	@ (8000640 <main+0x1d4>)
 8000564:	01c9      	lsls	r1, r1, #7
 8000566:	f000 facf 	bl	8000b08 <HAL_GPIO_ReadPin>
 800056a:	2800      	cmp	r0, #0
 800056c:	d10e      	bne.n	800058c <main+0x120>
 800056e:	2180      	movs	r1, #128	@ 0x80
 8000570:	4833      	ldr	r0, [pc, #204]	@ (8000640 <main+0x1d4>)
 8000572:	0209      	lsls	r1, r1, #8
 8000574:	f000 fac8 	bl	8000b08 <HAL_GPIO_ReadPin>
 8000578:	2800      	cmp	r0, #0
 800057a:	d107      	bne.n	800058c <main+0x120>
						report_data[0]=32767;		// SE
 800057c:	4b31      	ldr	r3, [pc, #196]	@ (8000644 <main+0x1d8>)
						HAL_GPIO_WritePin(LED_2_GPIO_Port, LED_2_Pin, 1);
 800057e:	2201      	movs	r2, #1
 8000580:	2120      	movs	r1, #32
 8000582:	0028      	movs	r0, r5
						report_data[0]=32767;		// SE
 8000584:	8023      	strh	r3, [r4, #0]
						report_data[1]=32767;
 8000586:	8063      	strh	r3, [r4, #2]
						HAL_GPIO_WritePin(LED_2_GPIO_Port, LED_2_Pin, 1);
 8000588:	f000 fac4 	bl	8000b14 <HAL_GPIO_WritePin>
			if ((HAL_GPIO_ReadPin(IN_3_GPIO_Port, IN_3_Pin)==0)&&(HAL_GPIO_ReadPin(IN_6_GPIO_Port, IN_6_Pin)==0))	// SouthWest
 800058c:	0039      	movs	r1, r7
 800058e:	482a      	ldr	r0, [pc, #168]	@ (8000638 <main+0x1cc>)
 8000590:	f000 faba 	bl	8000b08 <HAL_GPIO_ReadPin>
 8000594:	2800      	cmp	r0, #0
 8000596:	d10e      	bne.n	80005b6 <main+0x14a>
 8000598:	2101      	movs	r1, #1
 800059a:	482b      	ldr	r0, [pc, #172]	@ (8000648 <main+0x1dc>)
 800059c:	f000 fab4 	bl	8000b08 <HAL_GPIO_ReadPin>
 80005a0:	2800      	cmp	r0, #0
 80005a2:	d108      	bne.n	80005b6 <main+0x14a>
						report_data[0]=-32767;		// SW
 80005a4:	4b25      	ldr	r3, [pc, #148]	@ (800063c <main+0x1d0>)
						HAL_GPIO_WritePin(LED_2_GPIO_Port, LED_2_Pin, 1);
 80005a6:	2201      	movs	r2, #1
						report_data[0]=-32767;		// SW
 80005a8:	8023      	strh	r3, [r4, #0]
						report_data[1]=32767;
 80005aa:	4b26      	ldr	r3, [pc, #152]	@ (8000644 <main+0x1d8>)
						HAL_GPIO_WritePin(LED_2_GPIO_Port, LED_2_Pin, 1);
 80005ac:	2120      	movs	r1, #32
 80005ae:	0028      	movs	r0, r5
						report_data[1]=32767;
 80005b0:	8063      	strh	r3, [r4, #2]
						HAL_GPIO_WritePin(LED_2_GPIO_Port, LED_2_Pin, 1);
 80005b2:	f000 faaf 	bl	8000b14 <HAL_GPIO_WritePin>
			if ((HAL_GPIO_ReadPin(IN_3_GPIO_Port, IN_3_Pin)==0)&&(HAL_GPIO_ReadPin(IN_6_GPIO_Port, IN_6_Pin)==0))	// NorthWest
 80005b6:	0039      	movs	r1, r7
 80005b8:	481f      	ldr	r0, [pc, #124]	@ (8000638 <main+0x1cc>)
 80005ba:	f000 faa5 	bl	8000b08 <HAL_GPIO_ReadPin>
 80005be:	2800      	cmp	r0, #0
 80005c0:	d10d      	bne.n	80005de <main+0x172>
 80005c2:	2101      	movs	r1, #1
 80005c4:	4820      	ldr	r0, [pc, #128]	@ (8000648 <main+0x1dc>)
 80005c6:	f000 fa9f 	bl	8000b08 <HAL_GPIO_ReadPin>
 80005ca:	2800      	cmp	r0, #0
 80005cc:	d107      	bne.n	80005de <main+0x172>
						report_data[0]=-32767;		// NW
 80005ce:	4b1b      	ldr	r3, [pc, #108]	@ (800063c <main+0x1d0>)
						HAL_GPIO_WritePin(LED_2_GPIO_Port, LED_2_Pin, 1);
 80005d0:	2201      	movs	r2, #1
 80005d2:	2120      	movs	r1, #32
 80005d4:	0028      	movs	r0, r5
						report_data[0]=-32767;		// NW
 80005d6:	8023      	strh	r3, [r4, #0]
						report_data[1]=-32767;
 80005d8:	8063      	strh	r3, [r4, #2]
						HAL_GPIO_WritePin(LED_2_GPIO_Port, LED_2_Pin, 1);
 80005da:	f000 fa9b 	bl	8000b14 <HAL_GPIO_WritePin>
			if (HAL_GPIO_ReadPin(IN_9_GPIO_Port, IN_9_Pin)==0) HAL_GPIO_WritePin(LED_2_GPIO_Port, LED_2_Pin, 1);
 80005de:	2108      	movs	r1, #8
 80005e0:	4819      	ldr	r0, [pc, #100]	@ (8000648 <main+0x1dc>)
 80005e2:	f000 fa91 	bl	8000b08 <HAL_GPIO_ReadPin>
 80005e6:	2800      	cmp	r0, #0
 80005e8:	d104      	bne.n	80005f4 <main+0x188>
 80005ea:	2201      	movs	r2, #1
 80005ec:	2120      	movs	r1, #32
 80005ee:	0028      	movs	r0, r5
 80005f0:	f000 fa90 	bl	8000b14 <HAL_GPIO_WritePin>
			if (HAL_GPIO_ReadPin(IN_1_GPIO_Port, IN_1_Pin)==0) HAL_GPIO_WritePin(LED_2_GPIO_Port, LED_2_Pin, 1);
 80005f4:	2102      	movs	r1, #2
 80005f6:	0028      	movs	r0, r5
 80005f8:	f000 fa86 	bl	8000b08 <HAL_GPIO_ReadPin>
 80005fc:	2800      	cmp	r0, #0
 80005fe:	d104      	bne.n	800060a <main+0x19e>
 8000600:	2201      	movs	r2, #1
 8000602:	2120      	movs	r1, #32
 8000604:	0028      	movs	r0, r5
 8000606:	f000 fa85 	bl	8000b14 <HAL_GPIO_WritePin>
			report_data[2] = buttons_state;
 800060a:	9b01      	ldr	r3, [sp, #4]
			USBD_HID_SendReport(&hUsbDeviceFS, (uint8_t*) &report_data, (AXIS_NUM + BUTTONS_ENABLED)*sizeof(uint16_t));
 800060c:	2206      	movs	r2, #6
			report_data[2] = buttons_state;
 800060e:	881b      	ldrh	r3, [r3, #0]
			USBD_HID_SendReport(&hUsbDeviceFS, (uint8_t*) &report_data, (AXIS_NUM + BUTTONS_ENABLED)*sizeof(uint16_t));
 8000610:	0021      	movs	r1, r4
 8000612:	480e      	ldr	r0, [pc, #56]	@ (800064c <main+0x1e0>)
			report_data[2] = buttons_state;
 8000614:	80a3      	strh	r3, [r4, #4]
			USBD_HID_SendReport(&hUsbDeviceFS, (uint8_t*) &report_data, (AXIS_NUM + BUTTONS_ENABLED)*sizeof(uint16_t));
 8000616:	f000 f8d5 	bl	80007c4 <USBD_HID_SendReport>
			data_ready = 0;
 800061a:	2200      	movs	r2, #0
 800061c:	4b0c      	ldr	r3, [pc, #48]	@ (8000650 <main+0x1e4>)
 800061e:	701a      	strb	r2, [r3, #0]
if (ledFlash<20000) ledFlash++;
 8000620:	e732      	b.n	8000488 <main+0x1c>
else ledFlash=0;
 8000622:	2600      	movs	r6, #0
 8000624:	e739      	b.n	800049a <main+0x2e>
 8000626:	46c0      	nop			@ (mov r8, r8)
 8000628:	00004e20 	.word	0x00004e20
 800062c:	00004650 	.word	0x00004650
 8000630:	20000120 	.word	0x20000120
 8000634:	20000122 	.word	0x20000122
 8000638:	50000400 	.word	0x50000400
 800063c:	ffff8001 	.word	0xffff8001
 8000640:	50000800 	.word	0x50000800
 8000644:	00007fff 	.word	0x00007fff
 8000648:	50000c00 	.word	0x50000c00
 800064c:	20000134 	.word	0x20000134
 8000650:	20000128 	.word	0x20000128

08000654 <Error_Handler>:
 8000654:	b672      	cpsid	i
  while (1)
 8000656:	e7fe      	b.n	8000656 <Error_Handler+0x2>

08000658 <HAL_MspInit>:
/* USER CODE END 0 */
/**
  * Initializes the Global MSP.
  */
void HAL_MspInit(void)
{
 8000658:	b507      	push	{r0, r1, r2, lr}

  /* USER CODE BEGIN MspInit 0 */

  /* USER CODE END MspInit 0 */

  __HAL_RCC_SYSCFG_CLK_ENABLE();
 800065a:	2101      	movs	r1, #1
 800065c:	4b0a      	ldr	r3, [pc, #40]	@ (8000688 <HAL_MspInit+0x30>)

  /* System interrupt init*/

  /** Disable the internal Pull-Up in Dead Battery pins of UCPD peripheral
  */
  HAL_SYSCFG_StrobeDBattpinsConfig(SYSCFG_CFGR1_UCPD1_STROBE | SYSCFG_CFGR1_UCPD2_STROBE);
 800065e:	20c0      	movs	r0, #192	@ 0xc0
  __HAL_RCC_SYSCFG_CLK_ENABLE();
 8000660:	6c1a      	ldr	r2, [r3, #64]	@ 0x40
  HAL_SYSCFG_StrobeDBattpinsConfig(SYSCFG_CFGR1_UCPD1_STROBE | SYSCFG_CFGR1_UCPD2_STROBE);
 8000662:	00c0      	lsls	r0, r0, #3
  __HAL_RCC_SYSCFG_CLK_ENABLE();
 8000664:	430a      	orrs	r2, r1
 8000666:	641a      	str	r2, [r3, #64]	@ 0x40
 8000668:	6c1a      	ldr	r2, [r3, #64]	@ 0x40
 800066a:	400a      	ands	r2, r1
  __HAL_RCC_PWR_CLK_ENABLE();
 800066c:	2180      	movs	r1, #128	@ 0x80
  __HAL_RCC_SYSCFG_CLK_ENABLE();
 800066e:	9200      	str	r2, [sp, #0]
 8000670:	9a00      	ldr	r2, [sp, #0]
  __HAL_RCC_PWR_CLK_ENABLE();
 8000672:	6bda      	ldr	r2, [r3, #60]	@ 0x3c
 8000674:	0549      	lsls	r1, r1, #21
 8000676:	430a      	orrs	r2, r1
 8000678:	63da      	str	r2, [r3, #60]	@ 0x3c
 800067a:	6bdb      	ldr	r3, [r3, #60]	@ 0x3c
 800067c:	400b      	ands	r3, r1
 800067e:	9301      	str	r3, [sp, #4]
 8000680:	9b01      	ldr	r3, [sp, #4]
  HAL_SYSCFG_StrobeDBattpinsConfig(SYSCFG_CFGR1_UCPD1_STROBE | SYSCFG_CFGR1_UCPD2_STROBE);
 8000682:	f000 f92d 	bl	80008e0 <HAL_SYSCFG_StrobeDBattpinsConfig>

  /* USER CODE BEGIN MspInit 1 */

  /* USER CODE END MspInit 1 */
}
 8000686:	bd07      	pop	{r0, r1, r2, pc}
 8000688:	40021000 	.word	0x40021000

0800068c <NMI_Handler>:
{
  /* USER CODE BEGIN NonMaskableInt_IRQn 0 */

  /* USER CODE END NonMaskableInt_IRQn 0 */
  /* USER CODE BEGIN NonMaskableInt_IRQn 1 */
   while (1)
 800068c:	e7fe      	b.n	800068c <NMI_Handler>

0800068e <HardFault_Handler>:
void HardFault_Handler(void)
{
  /* USER CODE BEGIN HardFault_IRQn 0 */

  /* USER CODE END HardFault_IRQn 0 */
  while (1)
 800068e:	e7fe      	b.n	800068e <HardFault_Handler>

08000690 <SVC_Handler>:

  /* USER CODE END SVC_IRQn 0 */
  /* USER CODE BEGIN SVC_IRQn 1 */

  /* USER CODE END SVC_IRQn 1 */
}
 8000690:	4770      	bx	lr

08000692 <PendSV_Handler>:

/**
  * @brief This function handles Pendable request for system service.
  */
void PendSV_Handler(void)
 8000692:	4770      	bx	lr

08000694 <SysTick_Handler>:

/**
  * @brief This function handles System tick timer.
  */
void SysTick_Handler(void)
{
 8000694:	b510      	push	{r4, lr}
  /* USER CODE BEGIN SysTick_IRQn 0 */

  /* USER CODE END SysTick_IRQn 0 */
  HAL_IncTick();
 8000696:	f000 f911 	bl	80008bc <HAL_IncTick>
  /* USER CODE BEGIN SysTick_IRQn 1 */

  /* USER CODE END SysTick_IRQn 1 */
}
 800069a:	bd10      	pop	{r4, pc}

0800069c <USB_UCPD1_2_IRQHandler>:

/**
  * @brief This function handles USB, UCPD1 and UCPD2 global interrupts.
  */
void USB_UCPD1_2_IRQHandler(void)
{
 800069c:	b510      	push	{r4, lr}
  /* USER CODE BEGIN USB_UCPD1_2_IRQn 0 */

  /* USER CODE END USB_UCPD1_2_IRQn 0 */
  HAL_PCD_IRQHandler(&hpcd_USB_DRD_FS);
 800069e:	4802      	ldr	r0, [pc, #8]	@ (80006a8 <USB_UCPD1_2_IRQHandler+0xc>)
 80006a0:	f000 fada 	bl	8000c58 <HAL_PCD_IRQHandler>
  /* USER CODE BEGIN USB_UCPD1_2_IRQn 1 */

  /* USER CODE END USB_UCPD1_2_IRQn 1 */
}
 80006a4:	bd10      	pop	{r4, pc}
 80006a6:	46c0      	nop			@ (mov r8, r8)
 80006a8:	20000624 	.word	0x20000624

080006ac <SystemInit>:
{
  /* Configure the Vector Table location -------------------------------------*/
#if defined(USER_VECT_TAB_ADDRESS)
  SCB->VTOR = VECT_TAB_BASE_ADDRESS | VECT_TAB_OFFSET; /* Vector Table Relocation */
#endif /* USER_VECT_TAB_ADDRESS */
}
 80006ac:	4770      	bx	lr
	...

080006b0 <USBD_HID_GetCfgDesc>:
  * @param  length : pointer data length
  * @retval pointer to descriptor buffer
  */
static uint8_t  *USBD_HID_GetCfgDesc (uint16_t *length)
{
  *length = sizeof (USBD_HID_CfgDesc);
 80006b0:	2322      	movs	r3, #34	@ 0x22
 80006b2:	8003      	strh	r3, [r0, #0]
  return USBD_HID_CfgDesc;
 80006b4:	4800      	ldr	r0, [pc, #0]	@ (80006b8 <USBD_HID_GetCfgDesc+0x8>)
}
 80006b6:	4770      	bx	lr
 80006b8:	2000004c 	.word	0x2000004c

080006bc <USBD_HID_DataIn>:
                              uint8_t epnum)
{

  /* Ensure that the FIFO is empty before a new transfer, this condition could
  be caused by  a new transfer before the end of the previous transfer */
  ((USBD_HID_HandleTypeDef *)pdev->pClassData)->state = HID_IDLE;
 80006bc:	23af      	movs	r3, #175	@ 0xaf
 80006be:	009b      	lsls	r3, r3, #2
 80006c0:	58c3      	ldr	r3, [r0, r3]
 80006c2:	2000      	movs	r0, #0
 80006c4:	7318      	strb	r0, [r3, #12]
  return USBD_OK;
}
 80006c6:	4770      	bx	lr

080006c8 <USBD_HID_GetDeviceQualifierDesc>:
* @param  length : pointer data length
* @retval pointer to descriptor buffer
*/
static uint8_t  *USBD_HID_GetDeviceQualifierDesc (uint16_t *length)
{
  *length = sizeof (USBD_HID_DeviceQualifierDesc);
 80006c8:	230a      	movs	r3, #10
 80006ca:	8003      	strh	r3, [r0, #0]
  return USBD_HID_DeviceQualifierDesc;
 80006cc:	4800      	ldr	r0, [pc, #0]	@ (80006d0 <USBD_HID_GetDeviceQualifierDesc+0x8>)
}
 80006ce:	4770      	bx	lr
 80006d0:	20000034 	.word	0x20000034

080006d4 <USBD_HID_Setup>:
{
 80006d4:	000b      	movs	r3, r1
  USBD_HID_HandleTypeDef     *hhid = (USBD_HID_HandleTypeDef*) pdev->pClassData;
 80006d6:	22af      	movs	r2, #175	@ 0xaf
{
 80006d8:	b570      	push	{r4, r5, r6, lr}
 80006da:	781d      	ldrb	r5, [r3, #0]
  USBD_HID_HandleTypeDef     *hhid = (USBD_HID_HandleTypeDef*) pdev->pClassData;
 80006dc:	0092      	lsls	r2, r2, #2
 80006de:	5881      	ldr	r1, [r0, r2]
{
 80006e0:	0004      	movs	r4, r0
 80006e2:	002a      	movs	r2, r5
 80006e4:	2060      	movs	r0, #96	@ 0x60
 80006e6:	4002      	ands	r2, r0
  switch (req->bmRequest & USB_REQ_TYPE_MASK)
 80006e8:	4205      	tst	r5, r0
 80006ea:	d020      	beq.n	800072e <USBD_HID_Setup+0x5a>
 80006ec:	2a20      	cmp	r2, #32
 80006ee:	d10c      	bne.n	800070a <USBD_HID_Setup+0x36>
    switch (req->bRequest)
 80006f0:	7858      	ldrb	r0, [r3, #1]
 80006f2:	3802      	subs	r0, #2
 80006f4:	2809      	cmp	r0, #9
 80006f6:	d814      	bhi.n	8000722 <USBD_HID_Setup+0x4e>
 80006f8:	f7ff fd16 	bl	8000128 <__gnu_thumb1_case_uqi>
 80006fc:	13130e0d 	.word	0x13130e0d
 8000700:	13131313 	.word	0x13131313
 8000704:	0509      	.short	0x0509
      hhid->Protocol = (uint8_t)(req->wValue);
 8000706:	789b      	ldrb	r3, [r3, #2]
 8000708:	600b      	str	r3, [r1, #0]
      return USBD_FAIL;
 800070a:	2000      	movs	r0, #0
 800070c:	e00e      	b.n	800072c <USBD_HID_Setup+0x58>
      hhid->IdleState = (uint8_t)(req->wValue >> 8);
 800070e:	885b      	ldrh	r3, [r3, #2]
 8000710:	0a1b      	lsrs	r3, r3, #8
 8000712:	604b      	str	r3, [r1, #4]
      break;
 8000714:	e7f9      	b.n	800070a <USBD_HID_Setup+0x36>
                        (uint8_t *)&hhid->IdleState,
 8000716:	3104      	adds	r1, #4
      USBD_CtlSendData (pdev,
 8000718:	2201      	movs	r2, #1
 800071a:	0020      	movs	r0, r4
 800071c:	f002 fd0d 	bl	800313a <USBD_CtlSendData>
      break;
 8000720:	e7f3      	b.n	800070a <USBD_HID_Setup+0x36>
      USBD_CtlError (pdev, req);
 8000722:	0020      	movs	r0, r4
 8000724:	0019      	movs	r1, r3
 8000726:	f002 fce1 	bl	80030ec <USBD_CtlError>
      return USBD_FAIL;
 800072a:	2003      	movs	r0, #3
}
 800072c:	bd70      	pop	{r4, r5, r6, pc}
    switch (req->bRequest)
 800072e:	7858      	ldrb	r0, [r3, #1]
 8000730:	280a      	cmp	r0, #10
 8000732:	d01a      	beq.n	800076a <USBD_HID_Setup+0x96>
 8000734:	280b      	cmp	r0, #11
 8000736:	d01a      	beq.n	800076e <USBD_HID_Setup+0x9a>
 8000738:	2806      	cmp	r0, #6
 800073a:	d1e6      	bne.n	800070a <USBD_HID_Setup+0x36>
      if( req->wValue >> 8 == HID_REPORT_DESC)
 800073c:	8858      	ldrh	r0, [r3, #2]
 800073e:	0a00      	lsrs	r0, r0, #8
 8000740:	2822      	cmp	r0, #34	@ 0x22
 8000742:	d107      	bne.n	8000754 <USBD_HID_Setup+0x80>
        len = MIN(HID_DEVICE_REPORT_DESC_SIZE , req->wLength);
 8000744:	88db      	ldrh	r3, [r3, #6]
 8000746:	1c1a      	adds	r2, r3, #0
 8000748:	2b2d      	cmp	r3, #45	@ 0x2d
 800074a:	d900      	bls.n	800074e <USBD_HID_Setup+0x7a>
 800074c:	222d      	movs	r2, #45	@ 0x2d
        pbuf = HID_DEVICE_ReportDesc;
 800074e:	4909      	ldr	r1, [pc, #36]	@ (8000774 <USBD_HID_Setup+0xa0>)
        len = MIN(HID_DEVICE_REPORT_DESC_SIZE , req->wLength);
 8000750:	b292      	uxth	r2, r2
        pbuf = HID_DEVICE_ReportDesc;
 8000752:	e7e2      	b.n	800071a <USBD_HID_Setup+0x46>
  uint8_t  *pbuf = NULL;
 8000754:	0011      	movs	r1, r2
      else if( req->wValue >> 8 == HID_DESCRIPTOR_TYPE)
 8000756:	2821      	cmp	r0, #33	@ 0x21
 8000758:	d1df      	bne.n	800071a <USBD_HID_Setup+0x46>
        len = MIN(USB_HID_DESC_SIZ , req->wLength);
 800075a:	88db      	ldrh	r3, [r3, #6]
 800075c:	1c1a      	adds	r2, r3, #0
 800075e:	2b09      	cmp	r3, #9
 8000760:	d900      	bls.n	8000764 <USBD_HID_Setup+0x90>
 8000762:	2209      	movs	r2, #9
        pbuf = USBD_HID_Desc;
 8000764:	4904      	ldr	r1, [pc, #16]	@ (8000778 <USBD_HID_Setup+0xa4>)
        len = MIN(USB_HID_DESC_SIZ , req->wLength);
 8000766:	b292      	uxth	r2, r2
      USBD_CtlSendData (pdev,
 8000768:	e7d7      	b.n	800071a <USBD_HID_Setup+0x46>
                        (uint8_t *)&hhid->AltSetting,
 800076a:	3108      	adds	r1, #8
 800076c:	e7d4      	b.n	8000718 <USBD_HID_Setup+0x44>
      hhid->AltSetting = (uint8_t)(req->wValue);
 800076e:	789b      	ldrb	r3, [r3, #2]
 8000770:	608b      	str	r3, [r1, #8]
      break;
 8000772:	e7ca      	b.n	800070a <USBD_HID_Setup+0x36>
 8000774:	20000004 	.word	0x20000004
 8000778:	20000040 	.word	0x20000040

0800077c <USBD_HID_DeInit>:
{
 800077c:	b570      	push	{r4, r5, r6, lr}
  if(pdev->pClassData != NULL)
 800077e:	25af      	movs	r5, #175	@ 0xaf
{
 8000780:	0004      	movs	r4, r0
  USBD_LL_CloseEP(pdev,
 8000782:	2181      	movs	r1, #129	@ 0x81
  if(pdev->pClassData != NULL)
 8000784:	00ad      	lsls	r5, r5, #2
  USBD_LL_CloseEP(pdev,
 8000786:	f002 fea2 	bl	80034ce <USBD_LL_CloseEP>
  if(pdev->pClassData != NULL)
 800078a:	5960      	ldr	r0, [r4, r5]
 800078c:	2800      	cmp	r0, #0
 800078e:	d003      	beq.n	8000798 <USBD_HID_DeInit+0x1c>
    USBD_free(pdev->pClassData);
 8000790:	f002 ff12 	bl	80035b8 <USBD_static_free>
    pdev->pClassData = NULL;
 8000794:	2300      	movs	r3, #0
 8000796:	5163      	str	r3, [r4, r5]
}
 8000798:	2000      	movs	r0, #0
 800079a:	bd70      	pop	{r4, r5, r6, pc}

0800079c <USBD_HID_Init>:
  USBD_LL_OpenEP(pdev,
 800079c:	2304      	movs	r3, #4
 800079e:	2203      	movs	r2, #3
{
 80007a0:	b510      	push	{r4, lr}
  USBD_LL_OpenEP(pdev,
 80007a2:	2181      	movs	r1, #129	@ 0x81
{
 80007a4:	0004      	movs	r4, r0
  USBD_LL_OpenEP(pdev,
 80007a6:	f002 fe86 	bl	80034b6 <USBD_LL_OpenEP>
  pdev->pClassData = USBD_malloc(sizeof (USBD_HID_HandleTypeDef));
 80007aa:	2010      	movs	r0, #16
 80007ac:	f002 ff00 	bl	80035b0 <USBD_static_malloc>
 80007b0:	22af      	movs	r2, #175	@ 0xaf
 80007b2:	0092      	lsls	r2, r2, #2
 80007b4:	0003      	movs	r3, r0
 80007b6:	50a0      	str	r0, [r4, r2]
    ret = 1;
 80007b8:	2001      	movs	r0, #1
  if(pdev->pClassData == NULL)
 80007ba:	2b00      	cmp	r3, #0
 80007bc:	d001      	beq.n	80007c2 <USBD_HID_Init+0x26>
    ((USBD_HID_HandleTypeDef *)pdev->pClassData)->state = HID_IDLE;
 80007be:	2000      	movs	r0, #0
 80007c0:	7318      	strb	r0, [r3, #12]
}
 80007c2:	bd10      	pop	{r4, pc}

080007c4 <USBD_HID_SendReport>:
{
 80007c4:	0013      	movs	r3, r2
  if (pdev->dev_state == USBD_STATE_CONFIGURED )
 80007c6:	22a7      	movs	r2, #167	@ 0xa7
{
 80007c8:	b510      	push	{r4, lr}
  if (pdev->dev_state == USBD_STATE_CONFIGURED )
 80007ca:	0092      	lsls	r2, r2, #2
 80007cc:	5c82      	ldrb	r2, [r0, r2]
 80007ce:	2a03      	cmp	r2, #3
 80007d0:	d10b      	bne.n	80007ea <USBD_HID_SendReport+0x26>
  USBD_HID_HandleTypeDef     *hhid = (USBD_HID_HandleTypeDef*)pdev->pClassData;
 80007d2:	22af      	movs	r2, #175	@ 0xaf
 80007d4:	0092      	lsls	r2, r2, #2
 80007d6:	5882      	ldr	r2, [r0, r2]
    if(hhid->state == HID_IDLE)
 80007d8:	7b14      	ldrb	r4, [r2, #12]
 80007da:	2c00      	cmp	r4, #0
 80007dc:	d105      	bne.n	80007ea <USBD_HID_SendReport+0x26>
      hhid->state = HID_BUSY;
 80007de:	3401      	adds	r4, #1
 80007e0:	7314      	strb	r4, [r2, #12]
      USBD_LL_Transmit (pdev,
 80007e2:	000a      	movs	r2, r1
 80007e4:	2181      	movs	r1, #129	@ 0x81
 80007e6:	f002 fea9 	bl	800353c <USBD_LL_Transmit>
}
 80007ea:	2000      	movs	r0, #0
 80007ec:	bd10      	pop	{r4, pc}
	...

080007f0 <Reset_Handler>:
 80007f0:	480d      	ldr	r0, [pc, #52]	@ (8000828 <LoopForever+0x2>)
 80007f2:	4685      	mov	sp, r0
 80007f4:	f7ff ff5a 	bl	80006ac <SystemInit>
 80007f8:	480c      	ldr	r0, [pc, #48]	@ (800082c <LoopForever+0x6>)
 80007fa:	490d      	ldr	r1, [pc, #52]	@ (8000830 <LoopForever+0xa>)
 80007fc:	4a0d      	ldr	r2, [pc, #52]	@ (8000834 <LoopForever+0xe>)
 80007fe:	2300      	movs	r3, #0
 8000800:	e002      	b.n	8000808 <LoopCopyDataInit>

08000802 <CopyDataInit>:
 8000802:	58d4      	ldr	r4, [r2, r3]
 8000804:	50c4      	str	r4, [r0, r3]
 8000806:	3304      	adds	r3, #4

08000808 <LoopCopyDataInit>:
 8000808:	18c4      	adds	r4, r0, r3
 800080a:	428c      	cmp	r4, r1
 800080c:	d3f9      	bcc.n	8000802 <CopyDataInit>
 800080e:	4a0a      	ldr	r2, [pc, #40]	@ (8000838 <LoopForever+0x12>)
 8000810:	4c0a      	ldr	r4, [pc, #40]	@ (800083c <LoopForever+0x16>)
 8000812:	2300      	movs	r3, #0
 8000814:	e001      	b.n	800081a <LoopFillZerobss>

08000816 <FillZerobss>:
 8000816:	6013      	str	r3, [r2, #0]
 8000818:	3204      	adds	r2, #4

0800081a <LoopFillZerobss>:
 800081a:	42a2      	cmp	r2, r4
 800081c:	d3fb      	bcc.n	8000816 <FillZerobss>
 800081e:	f002 fed5 	bl	80035cc <__libc_init_array>
 8000822:	f7ff fe23 	bl	800046c <main>

08000826 <LoopForever>:
 8000826:	e7fe      	b.n	8000826 <LoopForever>
 8000828:	20024000 	.word	0x20024000
 800082c:	20000000 	.word	0x20000000
 8000830:	20000104 	.word	0x20000104
 8000834:	080036bc 	.word	0x080036bc
 8000838:	20000104 	.word	0x20000104
 800083c:	20000904 	.word	0x20000904

08000840 <ADC1_COMP_IRQHandler>:
 8000840:	e7fe      	b.n	8000840 <ADC1_COMP_IRQHandler>
	...

08000844 <HAL_InitTick>:
  *       implementation  in user file.
  * @param TickPriority Tick interrupt priority.
  * @retval HAL status
  */
__weak HAL_StatusTypeDef HAL_InitTick(uint32_t TickPriority)
{
 8000844:	b570      	push	{r4, r5, r6, lr}
  HAL_StatusTypeDef  status = HAL_OK;

  /* Check uwTickFreq for MisraC 2012 (even if uwTickFreq is a enum type that doesn't take the value zero)*/ 
  if ((uint32_t)uwTickFreq != 0U)
 8000846:	4b10      	ldr	r3, [pc, #64]	@ (8000888 <HAL_InitTick+0x44>)
{
 8000848:	0005      	movs	r5, r0
  if ((uint32_t)uwTickFreq != 0U)
 800084a:	7819      	ldrb	r1, [r3, #0]
 800084c:	2900      	cmp	r1, #0
 800084e:	d101      	bne.n	8000854 <HAL_InitTick+0x10>
        status = HAL_ERROR;
      }
    }
    else
    {
      status = HAL_ERROR;
 8000850:	2001      	movs	r0, #1
    status = HAL_ERROR;
  }

  /* Return function status */
  return status;
}
 8000852:	bd70      	pop	{r4, r5, r6, pc}
    if (HAL_SYSTICK_Config(SystemCoreClock / (1000U /(uint32_t)uwTickFreq)) == 0U)
 8000854:	20fa      	movs	r0, #250	@ 0xfa
 8000856:	0080      	lsls	r0, r0, #2
 8000858:	f7ff fc7a 	bl	8000150 <__udivsi3>
 800085c:	4c0b      	ldr	r4, [pc, #44]	@ (800088c <HAL_InitTick+0x48>)
 800085e:	0001      	movs	r1, r0
 8000860:	6820      	ldr	r0, [r4, #0]
 8000862:	f7ff fc75 	bl	8000150 <__udivsi3>
 8000866:	f000 f87d 	bl	8000964 <HAL_SYSTICK_Config>
 800086a:	1e04      	subs	r4, r0, #0
 800086c:	d1f0      	bne.n	8000850 <HAL_InitTick+0xc>
      if (TickPriority < (1UL << __NVIC_PRIO_BITS))
 800086e:	2d03      	cmp	r5, #3
 8000870:	d8ee      	bhi.n	8000850 <HAL_InitTick+0xc>
        HAL_NVIC_SetPriority(SysTick_IRQn, TickPriority, 0U);
 8000872:	0002      	movs	r2, r0
 8000874:	2001      	movs	r0, #1
 8000876:	0029      	movs	r1, r5
 8000878:	4240      	negs	r0, r0
 800087a:	f000 f83d 	bl	80008f8 <HAL_NVIC_SetPriority>
        uwTickPrio = TickPriority;
 800087e:	4b04      	ldr	r3, [pc, #16]	@ (8000890 <HAL_InitTick+0x4c>)
 8000880:	0020      	movs	r0, r4
 8000882:	601d      	str	r5, [r3, #0]
  return status;
 8000884:	e7e5      	b.n	8000852 <HAL_InitTick+0xe>
 8000886:	46c0      	nop			@ (mov r8, r8)
 8000888:	200000a8 	.word	0x200000a8
 800088c:	20000000 	.word	0x20000000
 8000890:	200000ac 	.word	0x200000ac

08000894 <HAL_Init>:
  __HAL_FLASH_PREFETCH_BUFFER_ENABLE();
 8000894:	2380      	movs	r3, #128	@ 0x80
 8000896:	4a08      	ldr	r2, [pc, #32]	@ (80008b8 <HAL_Init+0x24>)
 8000898:	005b      	lsls	r3, r3, #1
 800089a:	6811      	ldr	r1, [r2, #0]
{
 800089c:	b510      	push	{r4, lr}
  __HAL_FLASH_PREFETCH_BUFFER_ENABLE();
 800089e:	430b      	orrs	r3, r1
  if (HAL_InitTick(TICK_INT_PRIORITY) != HAL_OK)
 80008a0:	2003      	movs	r0, #3
  __HAL_FLASH_PREFETCH_BUFFER_ENABLE();
 80008a2:	6013      	str	r3, [r2, #0]
  if (HAL_InitTick(TICK_INT_PRIORITY) != HAL_OK)
 80008a4:	f7ff ffce 	bl	8000844 <HAL_InitTick>
 80008a8:	1e04      	subs	r4, r0, #0
 80008aa:	d103      	bne.n	80008b4 <HAL_Init+0x20>
  HAL_MspInit();
 80008ac:	f7ff fed4 	bl	8000658 <HAL_MspInit>
}
 80008b0:	0020      	movs	r0, r4
 80008b2:	bd10      	pop	{r4, pc}
    status = HAL_ERROR;
 80008b4:	2401      	movs	r4, #1
 80008b6:	e7fb      	b.n	80008b0 <HAL_Init+0x1c>
 80008b8:	40022000 	.word	0x40022000

080008bc <HAL_IncTick>:
  *      implementations in user file.
  * @retval None
  */
__weak void HAL_IncTick(void)
{
  uwTick += (uint32_t)uwTickFreq;
 80008bc:	4a03      	ldr	r2, [pc, #12]	@ (80008cc <HAL_IncTick+0x10>)
 80008be:	4b04      	ldr	r3, [pc, #16]	@ (80008d0 <HAL_IncTick+0x14>)
 80008c0:	6811      	ldr	r1, [r2, #0]
 80008c2:	781b      	ldrb	r3, [r3, #0]
 80008c4:	185b      	adds	r3, r3, r1
 80008c6:	6013      	str	r3, [r2, #0]
}
 80008c8:	4770      	bx	lr
 80008ca:	46c0      	nop			@ (mov r8, r8)
 80008cc:	2000012c 	.word	0x2000012c
 80008d0:	200000a8 	.word	0x200000a8

080008d4 <HAL_GetTick>:
  *       implementations in user file.
  * @retval tick value
  */
__weak uint32_t HAL_GetTick(void)
{
  return uwTick;
 80008d4:	4b01      	ldr	r3, [pc, #4]	@ (80008dc <HAL_GetTick+0x8>)
 80008d6:	6818      	ldr	r0, [r3, #0]
}
 80008d8:	4770      	bx	lr
 80008da:	46c0      	nop			@ (mov r8, r8)
 80008dc:	2000012c 	.word	0x2000012c

080008e0 <HAL_SYSCFG_StrobeDBattpinsConfig>:
void HAL_SYSCFG_StrobeDBattpinsConfig(uint32_t ConfigDeadBattery)
{
  assert_param(IS_SYSCFG_DBATT_CONFIG(ConfigDeadBattery));

  /* Change strobe configuration of GPIO depending on UCPDx dead battery settings */
  MODIFY_REG(SYSCFG->CFGR1, (SYSCFG_CFGR1_UCPD1_STROBE | SYSCFG_CFGR1_UCPD2_STROBE), ConfigDeadBattery);
 80008e0:	4a03      	ldr	r2, [pc, #12]	@ (80008f0 <HAL_SYSCFG_StrobeDBattpinsConfig+0x10>)
 80008e2:	4904      	ldr	r1, [pc, #16]	@ (80008f4 <HAL_SYSCFG_StrobeDBattpinsConfig+0x14>)
 80008e4:	6813      	ldr	r3, [r2, #0]
 80008e6:	400b      	ands	r3, r1
 80008e8:	4303      	orrs	r3, r0
 80008ea:	6013      	str	r3, [r2, #0]
}
 80008ec:	4770      	bx	lr
 80008ee:	46c0      	nop			@ (mov r8, r8)
 80008f0:	40010000 	.word	0x40010000
 80008f4:	fffff9ff 	.word	0xfffff9ff

080008f8 <HAL_NVIC_SetPriority>:
  *         with stm32g0xx devices, this parameter is a dummy value and it is ignored, because
  *         no subpriority supported in Cortex M0+ based products.
  * @retval None
  */
void HAL_NVIC_SetPriority(IRQn_Type IRQn, uint32_t PreemptPriority, uint32_t SubPriority)
{
 80008f8:	b510      	push	{r4, lr}
 */
__STATIC_INLINE void __NVIC_SetPriority(IRQn_Type IRQn, uint32_t priority)
{
  if ((int32_t)(IRQn) >= 0)
  {
    NVIC->IP[_IP_IDX(IRQn)]  = ((uint32_t)(NVIC->IP[_IP_IDX(IRQn)]  & ~(0xFFUL << _BIT_SHIFT(IRQn))) |
 80008fa:	24ff      	movs	r4, #255	@ 0xff
 80008fc:	2203      	movs	r2, #3
 80008fe:	000b      	movs	r3, r1
 8000900:	0021      	movs	r1, r4
 8000902:	4002      	ands	r2, r0
 8000904:	00d2      	lsls	r2, r2, #3
 8000906:	4091      	lsls	r1, r2
       (((priority << (8U - __NVIC_PRIO_BITS)) & (uint32_t)0xFFUL) << _BIT_SHIFT(IRQn)));
 8000908:	019b      	lsls	r3, r3, #6
 800090a:	4023      	ands	r3, r4
    NVIC->IP[_IP_IDX(IRQn)]  = ((uint32_t)(NVIC->IP[_IP_IDX(IRQn)]  & ~(0xFFUL << _BIT_SHIFT(IRQn))) |
 800090c:	43c9      	mvns	r1, r1
       (((priority << (8U - __NVIC_PRIO_BITS)) & (uint32_t)0xFFUL) << _BIT_SHIFT(IRQn)));
 800090e:	4093      	lsls	r3, r2
  if ((int32_t)(IRQn) >= 0)
 8000910:	2800      	cmp	r0, #0
 8000912:	db0a      	blt.n	800092a <HAL_NVIC_SetPriority+0x32>
    NVIC->IP[_IP_IDX(IRQn)]  = ((uint32_t)(NVIC->IP[_IP_IDX(IRQn)]  & ~(0xFFUL << _BIT_SHIFT(IRQn))) |
 8000914:	24c0      	movs	r4, #192	@ 0xc0
 8000916:	4a0b      	ldr	r2, [pc, #44]	@ (8000944 <HAL_NVIC_SetPriority+0x4c>)
 8000918:	0880      	lsrs	r0, r0, #2
 800091a:	0080      	lsls	r0, r0, #2
 800091c:	1880      	adds	r0, r0, r2
 800091e:	00a4      	lsls	r4, r4, #2
 8000920:	5902      	ldr	r2, [r0, r4]
 8000922:	400a      	ands	r2, r1
 8000924:	4313      	orrs	r3, r2
 8000926:	5103      	str	r3, [r0, r4]
  UNUSED(SubPriority);

  /* Check the parameters */
  assert_param(IS_NVIC_PREEMPTION_PRIORITY(PreemptPriority));
  NVIC_SetPriority(IRQn, PreemptPriority);
}
 8000928:	bd10      	pop	{r4, pc}
  }
  else
  {
    SCB->SHP[_SHP_IDX(IRQn)] = ((uint32_t)(SCB->SHP[_SHP_IDX(IRQn)] & ~(0xFFUL << _BIT_SHIFT(IRQn))) |
 800092a:	220f      	movs	r2, #15
 800092c:	4010      	ands	r0, r2
 800092e:	3808      	subs	r0, #8
 8000930:	4a05      	ldr	r2, [pc, #20]	@ (8000948 <HAL_NVIC_SetPriority+0x50>)
 8000932:	0880      	lsrs	r0, r0, #2
 8000934:	0080      	lsls	r0, r0, #2
 8000936:	1880      	adds	r0, r0, r2
 8000938:	69c2      	ldr	r2, [r0, #28]
 800093a:	4011      	ands	r1, r2
 800093c:	4319      	orrs	r1, r3
 800093e:	61c1      	str	r1, [r0, #28]
 8000940:	e7f2      	b.n	8000928 <HAL_NVIC_SetPriority+0x30>
 8000942:	46c0      	nop			@ (mov r8, r8)
 8000944:	e000e100 	.word	0xe000e100
 8000948:	e000ed00 	.word	0xe000ed00

0800094c <HAL_NVIC_EnableIRQ>:
  if ((int32_t)(IRQn) >= 0)
 800094c:	2800      	cmp	r0, #0
 800094e:	db05      	blt.n	800095c <HAL_NVIC_EnableIRQ+0x10>
    NVIC->ISER[0U] = (uint32_t)(1UL << (((uint32_t)IRQn) & 0x1FUL));
 8000950:	231f      	movs	r3, #31
 8000952:	4018      	ands	r0, r3
 8000954:	3b1e      	subs	r3, #30
 8000956:	4083      	lsls	r3, r0
 8000958:	4a01      	ldr	r2, [pc, #4]	@ (8000960 <HAL_NVIC_EnableIRQ+0x14>)
 800095a:	6013      	str	r3, [r2, #0]
  /* Check the parameters */
  assert_param(IS_NVIC_DEVICE_IRQ(IRQn));

  /* Enable interrupt */
  NVIC_EnableIRQ(IRQn);
}
 800095c:	4770      	bx	lr
 800095e:	46c0      	nop			@ (mov r8, r8)
 8000960:	e000e100 	.word	0xe000e100

08000964 <HAL_SYSTICK_Config>:
           function <b>SysTick_Config</b> is not included. In this case, the file <b><i>device</i>.h</b>
           must contain a vendor-specific implementation of this function.
 */
__STATIC_INLINE uint32_t SysTick_Config(uint32_t ticks)
{
  if ((ticks - 1UL) > SysTick_LOAD_RELOAD_Msk)
 8000964:	2280      	movs	r2, #128	@ 0x80
 8000966:	1e43      	subs	r3, r0, #1
 8000968:	0452      	lsls	r2, r2, #17
  {
    return (1UL);                                                   /* Reload value impossible */
 800096a:	2001      	movs	r0, #1
  if ((ticks - 1UL) > SysTick_LOAD_RELOAD_Msk)
 800096c:	4293      	cmp	r3, r2
 800096e:	d20d      	bcs.n	800098c <HAL_SYSTICK_Config+0x28>
    SCB->SHP[_SHP_IDX(IRQn)] = ((uint32_t)(SCB->SHP[_SHP_IDX(IRQn)] & ~(0xFFUL << _BIT_SHIFT(IRQn))) |
 8000970:	21c0      	movs	r1, #192	@ 0xc0
  }

  SysTick->LOAD  = (uint32_t)(ticks - 1UL);                         /* set reload register */
 8000972:	4a07      	ldr	r2, [pc, #28]	@ (8000990 <HAL_SYSTICK_Config+0x2c>)
    SCB->SHP[_SHP_IDX(IRQn)] = ((uint32_t)(SCB->SHP[_SHP_IDX(IRQn)] & ~(0xFFUL << _BIT_SHIFT(IRQn))) |
 8000974:	4807      	ldr	r0, [pc, #28]	@ (8000994 <HAL_SYSTICK_Config+0x30>)
  SysTick->LOAD  = (uint32_t)(ticks - 1UL);                         /* set reload register */
 8000976:	6053      	str	r3, [r2, #4]
    SCB->SHP[_SHP_IDX(IRQn)] = ((uint32_t)(SCB->SHP[_SHP_IDX(IRQn)] & ~(0xFFUL << _BIT_SHIFT(IRQn))) |
 8000978:	6a03      	ldr	r3, [r0, #32]
 800097a:	0609      	lsls	r1, r1, #24
 800097c:	021b      	lsls	r3, r3, #8
 800097e:	0a1b      	lsrs	r3, r3, #8
 8000980:	430b      	orrs	r3, r1
 8000982:	6203      	str	r3, [r0, #32]
  NVIC_SetPriority (SysTick_IRQn, (1UL << __NVIC_PRIO_BITS) - 1UL); /* set Priority for Systick Interrupt */
  SysTick->VAL   = 0UL;                                             /* Load the SysTick Counter Value */
 8000984:	2000      	movs	r0, #0
  SysTick->CTRL  = SysTick_CTRL_CLKSOURCE_Msk |
 8000986:	2307      	movs	r3, #7
  SysTick->VAL   = 0UL;                                             /* Load the SysTick Counter Value */
 8000988:	6090      	str	r0, [r2, #8]
  SysTick->CTRL  = SysTick_CTRL_CLKSOURCE_Msk |
 800098a:	6013      	str	r3, [r2, #0]
  *                  - 1  Function failed.
  */
uint32_t HAL_SYSTICK_Config(uint32_t TicksNumb)
{
  return SysTick_Config(TicksNumb);
}
 800098c:	4770      	bx	lr
 800098e:	46c0      	nop			@ (mov r8, r8)
 8000990:	e000e010 	.word	0xe000e010
 8000994:	e000ed00 	.word	0xe000ed00

08000998 <HAL_GPIO_Init>:
  *         the configuration information for the specified GPIO peripheral.
  * @retval None
  */
void HAL_GPIO_Init(GPIO_TypeDef *GPIOx, GPIO_InitTypeDef const *GPIO_Init)
{
  uint32_t position = 0x00u;
 8000998:	2300      	movs	r3, #0
{
 800099a:	b5f0      	push	{r4, r5, r6, r7, lr}
 800099c:	b085      	sub	sp, #20
  assert_param(IS_GPIO_ALL_INSTANCE(GPIOx));
  assert_param(IS_GPIO_PIN(GPIO_Init->Pin));
  assert_param(IS_GPIO_MODE(GPIO_Init->Mode));

  /* Configure the port pins */
  while (((GPIO_Init->Pin) >> position) != 0x00u)
 800099e:	680a      	ldr	r2, [r1, #0]
 80009a0:	0014      	movs	r4, r2
 80009a2:	40dc      	lsrs	r4, r3
 80009a4:	d101      	bne.n	80009aa <HAL_GPIO_Init+0x12>
      }
    }

    position++;
  }
}
 80009a6:	b005      	add	sp, #20
 80009a8:	bdf0      	pop	{r4, r5, r6, r7, pc}
    iocurrent = (GPIO_Init->Pin) & (1uL << position);
 80009aa:	2501      	movs	r5, #1
 80009ac:	0014      	movs	r4, r2
 80009ae:	409d      	lsls	r5, r3
 80009b0:	402c      	ands	r4, r5
 80009b2:	9400      	str	r4, [sp, #0]
    if (iocurrent != 0x00u)
 80009b4:	422a      	tst	r2, r5
 80009b6:	d100      	bne.n	80009ba <HAL_GPIO_Init+0x22>
 80009b8:	e095      	b.n	8000ae6 <HAL_GPIO_Init+0x14e>
      if (((GPIO_Init->Mode & GPIO_MODE) == MODE_OUTPUT) || ((GPIO_Init->Mode & GPIO_MODE) == MODE_AF))
 80009ba:	684a      	ldr	r2, [r1, #4]
 80009bc:	005f      	lsls	r7, r3, #1
 80009be:	4694      	mov	ip, r2
 80009c0:	2203      	movs	r2, #3
 80009c2:	4664      	mov	r4, ip
 80009c4:	4022      	ands	r2, r4
        temp &= ~(GPIO_OSPEEDR_OSPEED0 << (position * 2u));
 80009c6:	2403      	movs	r4, #3
 80009c8:	40bc      	lsls	r4, r7
 80009ca:	43e4      	mvns	r4, r4
 80009cc:	9401      	str	r4, [sp, #4]
      if (((GPIO_Init->Mode & GPIO_MODE) == MODE_OUTPUT) || ((GPIO_Init->Mode & GPIO_MODE) == MODE_AF))
 80009ce:	1e54      	subs	r4, r2, #1
 80009d0:	2c01      	cmp	r4, #1
 80009d2:	d82e      	bhi.n	8000a32 <HAL_GPIO_Init+0x9a>
        temp = GPIOx->OSPEEDR;
 80009d4:	6886      	ldr	r6, [r0, #8]
        temp &= ~(GPIO_OSPEEDR_OSPEED0 << (position * 2u));
 80009d6:	9c01      	ldr	r4, [sp, #4]
 80009d8:	4026      	ands	r6, r4
        temp |= (GPIO_Init->Speed << (position * 2u));
 80009da:	68cc      	ldr	r4, [r1, #12]
 80009dc:	40bc      	lsls	r4, r7
 80009de:	4334      	orrs	r4, r6
        GPIOx->OSPEEDR = temp;
 80009e0:	6084      	str	r4, [r0, #8]
        temp = GPIOx->OTYPER;
 80009e2:	6844      	ldr	r4, [r0, #4]
        temp |= (((GPIO_Init->Mode & OUTPUT_TYPE) >> OUTPUT_TYPE_Pos) << position);
 80009e4:	2601      	movs	r6, #1
        temp &= ~(GPIO_OTYPER_OT0 << position) ;
 80009e6:	43ac      	bics	r4, r5
 80009e8:	0025      	movs	r5, r4
        temp |= (((GPIO_Init->Mode & OUTPUT_TYPE) >> OUTPUT_TYPE_Pos) << position);
 80009ea:	4664      	mov	r4, ip
 80009ec:	0924      	lsrs	r4, r4, #4
 80009ee:	4034      	ands	r4, r6
 80009f0:	409c      	lsls	r4, r3
 80009f2:	432c      	orrs	r4, r5
        GPIOx->OTYPER = temp;
 80009f4:	6044      	str	r4, [r0, #4]
        temp = GPIOx->PUPDR;
 80009f6:	68c5      	ldr	r5, [r0, #12]
        temp &= ~(GPIO_PUPDR_PUPD0 << (position * 2u));
 80009f8:	9c01      	ldr	r4, [sp, #4]
 80009fa:	4025      	ands	r5, r4
        temp |= ((GPIO_Init->Pull) << (position * 2u));
 80009fc:	688c      	ldr	r4, [r1, #8]
 80009fe:	40bc      	lsls	r4, r7
 8000a00:	432c      	orrs	r4, r5
        GPIOx->PUPDR = temp;
 8000a02:	60c4      	str	r4, [r0, #12]
      if ((GPIO_Init->Mode & GPIO_MODE) == MODE_AF)
 8000a04:	2a02      	cmp	r2, #2
 8000a06:	d116      	bne.n	8000a36 <HAL_GPIO_Init+0x9e>
        temp &= ~(0xFu << ((position & 0x07u) * 4u));
 8000a08:	2507      	movs	r5, #7
 8000a0a:	260f      	movs	r6, #15
 8000a0c:	401d      	ands	r5, r3
 8000a0e:	00ad      	lsls	r5, r5, #2
 8000a10:	40ae      	lsls	r6, r5
        temp = GPIOx->AFR[position >> 3u];
 8000a12:	08dc      	lsrs	r4, r3, #3
 8000a14:	00a4      	lsls	r4, r4, #2
 8000a16:	1904      	adds	r4, r0, r4
 8000a18:	9402      	str	r4, [sp, #8]
 8000a1a:	6a24      	ldr	r4, [r4, #32]
        temp &= ~(0xFu << ((position & 0x07u) * 4u));
 8000a1c:	9603      	str	r6, [sp, #12]
 8000a1e:	0026      	movs	r6, r4
 8000a20:	9c03      	ldr	r4, [sp, #12]
 8000a22:	43a6      	bics	r6, r4
 8000a24:	0034      	movs	r4, r6
        temp |= ((GPIO_Init->Alternate) << ((position & 0x07u) * 4u));
 8000a26:	690e      	ldr	r6, [r1, #16]
 8000a28:	40ae      	lsls	r6, r5
 8000a2a:	4326      	orrs	r6, r4
        GPIOx->AFR[position >> 3u] = temp;
 8000a2c:	9c02      	ldr	r4, [sp, #8]
 8000a2e:	6226      	str	r6, [r4, #32]
 8000a30:	e001      	b.n	8000a36 <HAL_GPIO_Init+0x9e>
      if ((GPIO_Init->Mode & GPIO_MODE) != MODE_ANALOG)
 8000a32:	2a03      	cmp	r2, #3
 8000a34:	d1df      	bne.n	80009f6 <HAL_GPIO_Init+0x5e>
      temp |= ((GPIO_Init->Mode & GPIO_MODE) << (position * 2u));
 8000a36:	40ba      	lsls	r2, r7
      temp = GPIOx->MODER;
 8000a38:	6804      	ldr	r4, [r0, #0]
      temp &= ~(GPIO_MODER_MODE0 << (position * 2u));
 8000a3a:	9d01      	ldr	r5, [sp, #4]
 8000a3c:	4025      	ands	r5, r4
      temp |= ((GPIO_Init->Mode & GPIO_MODE) << (position * 2u));
 8000a3e:	432a      	orrs	r2, r5
      if ((GPIO_Init->Mode & EXTI_MODE) != 0x00u)
 8000a40:	24c0      	movs	r4, #192	@ 0xc0
      GPIOx->MODER = temp;
 8000a42:	6002      	str	r2, [r0, #0]
      if ((GPIO_Init->Mode & EXTI_MODE) != 0x00u)
 8000a44:	4662      	mov	r2, ip
 8000a46:	02a4      	lsls	r4, r4, #10
 8000a48:	4222      	tst	r2, r4
 8000a4a:	d04c      	beq.n	8000ae6 <HAL_GPIO_Init+0x14e>
        temp = EXTI->EXTICR[position >> 2u];
 8000a4c:	4a27      	ldr	r2, [pc, #156]	@ (8000aec <HAL_GPIO_Init+0x154>)
        temp &= ~(0x0FuL << (8u * (position & 0x03u)));
 8000a4e:	2503      	movs	r5, #3
        temp = EXTI->EXTICR[position >> 2u];
 8000a50:	089c      	lsrs	r4, r3, #2
 8000a52:	00a4      	lsls	r4, r4, #2
 8000a54:	18a4      	adds	r4, r4, r2
        temp &= ~(0x0FuL << (8u * (position & 0x03u)));
 8000a56:	220f      	movs	r2, #15
 8000a58:	401d      	ands	r5, r3
 8000a5a:	00ed      	lsls	r5, r5, #3
 8000a5c:	40aa      	lsls	r2, r5
        temp |= (GPIO_GET_INDEX(GPIOx) << (8u * (position & 0x03u)));
 8000a5e:	27a0      	movs	r7, #160	@ 0xa0
        temp = EXTI->EXTICR[position >> 2u];
 8000a60:	6e26      	ldr	r6, [r4, #96]	@ 0x60
        temp |= (GPIO_GET_INDEX(GPIOx) << (8u * (position & 0x03u)));
 8000a62:	05ff      	lsls	r7, r7, #23
        temp &= ~(0x0FuL << (8u * (position & 0x03u)));
 8000a64:	4396      	bics	r6, r2
        temp |= (GPIO_GET_INDEX(GPIOx) << (8u * (position & 0x03u)));
 8000a66:	2200      	movs	r2, #0
 8000a68:	42b8      	cmp	r0, r7
 8000a6a:	d010      	beq.n	8000a8e <HAL_GPIO_Init+0xf6>
 8000a6c:	4f20      	ldr	r7, [pc, #128]	@ (8000af0 <HAL_GPIO_Init+0x158>)
 8000a6e:	3201      	adds	r2, #1
 8000a70:	42b8      	cmp	r0, r7
 8000a72:	d00c      	beq.n	8000a8e <HAL_GPIO_Init+0xf6>
 8000a74:	4f1f      	ldr	r7, [pc, #124]	@ (8000af4 <HAL_GPIO_Init+0x15c>)
 8000a76:	3201      	adds	r2, #1
 8000a78:	42b8      	cmp	r0, r7
 8000a7a:	d008      	beq.n	8000a8e <HAL_GPIO_Init+0xf6>
 8000a7c:	4f1e      	ldr	r7, [pc, #120]	@ (8000af8 <HAL_GPIO_Init+0x160>)
 8000a7e:	3201      	adds	r2, #1
 8000a80:	42b8      	cmp	r0, r7
 8000a82:	d004      	beq.n	8000a8e <HAL_GPIO_Init+0xf6>
 8000a84:	4a1d      	ldr	r2, [pc, #116]	@ (8000afc <HAL_GPIO_Init+0x164>)
 8000a86:	1882      	adds	r2, r0, r2
 8000a88:	1e57      	subs	r7, r2, #1
 8000a8a:	41ba      	sbcs	r2, r7
 8000a8c:	3204      	adds	r2, #4
 8000a8e:	40aa      	lsls	r2, r5
        if ((GPIO_Init->Mode & TRIGGER_RISING) != 0x00u)
 8000a90:	4667      	mov	r7, ip
        temp |= (GPIO_GET_INDEX(GPIOx) << (8u * (position & 0x03u)));
 8000a92:	4332      	orrs	r2, r6
        EXTI->EXTICR[position >> 2u] = temp;
 8000a94:	6622      	str	r2, [r4, #96]	@ 0x60
        temp = EXTI->RTSR1;
 8000a96:	4c15      	ldr	r4, [pc, #84]	@ (8000aec <HAL_GPIO_Init+0x154>)
        temp &= ~(iocurrent);
 8000a98:	9a00      	ldr	r2, [sp, #0]
        temp = EXTI->RTSR1;
 8000a9a:	6826      	ldr	r6, [r4, #0]
          temp |= iocurrent;
 8000a9c:	9d00      	ldr	r5, [sp, #0]
        temp &= ~(iocurrent);
 8000a9e:	43d2      	mvns	r2, r2
          temp |= iocurrent;
 8000aa0:	4335      	orrs	r5, r6
        if ((GPIO_Init->Mode & TRIGGER_RISING) != 0x00u)
 8000aa2:	02ff      	lsls	r7, r7, #11
 8000aa4:	d401      	bmi.n	8000aaa <HAL_GPIO_Init+0x112>
        temp &= ~(iocurrent);
 8000aa6:	0035      	movs	r5, r6
 8000aa8:	4015      	ands	r5, r2
        if ((GPIO_Init->Mode & TRIGGER_FALLING) != 0x00u)
 8000aaa:	4667      	mov	r7, ip
        EXTI->RTSR1 = temp;
 8000aac:	6025      	str	r5, [r4, #0]
        temp = EXTI->FTSR1;
 8000aae:	6866      	ldr	r6, [r4, #4]
          temp |= iocurrent;
 8000ab0:	9d00      	ldr	r5, [sp, #0]
 8000ab2:	4335      	orrs	r5, r6
        if ((GPIO_Init->Mode & TRIGGER_FALLING) != 0x00u)
 8000ab4:	02bf      	lsls	r7, r7, #10
 8000ab6:	d401      	bmi.n	8000abc <HAL_GPIO_Init+0x124>
        temp &= ~(iocurrent);
 8000ab8:	0035      	movs	r5, r6
 8000aba:	4015      	ands	r5, r2
        if ((GPIO_Init->Mode & EXTI_EVT) != 0x00u)
 8000abc:	4667      	mov	r7, ip
        EXTI->FTSR1 = temp;
 8000abe:	6065      	str	r5, [r4, #4]
        temp = EXTI->EMR1;
 8000ac0:	4c0f      	ldr	r4, [pc, #60]	@ (8000b00 <HAL_GPIO_Init+0x168>)
          temp |= iocurrent;
 8000ac2:	9d00      	ldr	r5, [sp, #0]
        temp = EXTI->EMR1;
 8000ac4:	6fe6      	ldr	r6, [r4, #124]	@ 0x7c
          temp |= iocurrent;
 8000ac6:	4335      	orrs	r5, r6
        if ((GPIO_Init->Mode & EXTI_EVT) != 0x00u)
 8000ac8:	03bf      	lsls	r7, r7, #14
 8000aca:	d401      	bmi.n	8000ad0 <HAL_GPIO_Init+0x138>
        temp &= ~(iocurrent);
 8000acc:	0035      	movs	r5, r6
 8000ace:	4015      	ands	r5, r2
        if ((GPIO_Init->Mode & EXTI_IT) != 0x00u)
 8000ad0:	4667      	mov	r7, ip
        EXTI->EMR1 = temp;
 8000ad2:	67e5      	str	r5, [r4, #124]	@ 0x7c
        temp = EXTI->IMR1;
 8000ad4:	4c0b      	ldr	r4, [pc, #44]	@ (8000b04 <HAL_GPIO_Init+0x16c>)
          temp |= iocurrent;
 8000ad6:	9e00      	ldr	r6, [sp, #0]
        temp = EXTI->IMR1;
 8000ad8:	6fe5      	ldr	r5, [r4, #124]	@ 0x7c
          temp |= iocurrent;
 8000ada:	432e      	orrs	r6, r5
        if ((GPIO_Init->Mode & EXTI_IT) != 0x00u)
 8000adc:	03ff      	lsls	r7, r7, #15
 8000ade:	d401      	bmi.n	8000ae4 <HAL_GPIO_Init+0x14c>
        temp &= ~(iocurrent);
 8000ae0:	4015      	ands	r5, r2
 8000ae2:	002e      	movs	r6, r5
        EXTI->IMR1 = temp;
 8000ae4:	67e6      	str	r6, [r4, #124]	@ 0x7c
    position++;
 8000ae6:	3301      	adds	r3, #1
 8000ae8:	e759      	b.n	800099e <HAL_GPIO_Init+0x6>
 8000aea:	46c0      	nop			@ (mov r8, r8)
 8000aec:	40021800 	.word	0x40021800
 8000af0:	50000400 	.word	0x50000400
 8000af4:	50000800 	.word	0x50000800
 8000af8:	50000c00 	.word	0x50000c00
 8000afc:	affff000 	.word	0xaffff000
 8000b00:	40021808 	.word	0x40021808
 8000b04:	40021804 	.word	0x40021804

08000b08 <HAL_GPIO_ReadPin>:
  GPIO_PinState bitstatus;

  /* Check the parameters */
  assert_param(IS_GPIO_PIN(GPIO_Pin));

  if ((GPIOx->IDR & GPIO_Pin) != 0x00u)
 8000b08:	6900      	ldr	r0, [r0, #16]
 8000b0a:	4008      	ands	r0, r1
 8000b0c:	1e43      	subs	r3, r0, #1
 8000b0e:	4198      	sbcs	r0, r3
  }
  else
  {
    bitstatus = GPIO_PIN_RESET;
  }
  return bitstatus;
 8000b10:	b2c0      	uxtb	r0, r0
}
 8000b12:	4770      	bx	lr

08000b14 <HAL_GPIO_WritePin>:
{
  /* Check the parameters */
  assert_param(IS_GPIO_PIN(GPIO_Pin));
  assert_param(IS_GPIO_PIN_ACTION(PinState));

  if (PinState != GPIO_PIN_RESET)
 8000b14:	2a00      	cmp	r2, #0
 8000b16:	d001      	beq.n	8000b1c <HAL_GPIO_WritePin+0x8>
  {
    GPIOx->BSRR = (uint32_t)GPIO_Pin;
 8000b18:	6181      	str	r1, [r0, #24]
  }
  else
  {
    GPIOx->BRR = (uint32_t)GPIO_Pin;
  }
}
 8000b1a:	4770      	bx	lr
    GPIOx->BRR = (uint32_t)GPIO_Pin;
 8000b1c:	6281      	str	r1, [r0, #40]	@ 0x28
}
 8000b1e:	e7fc      	b.n	8000b1a <HAL_GPIO_WritePin+0x6>

08000b20 <PCD_GET_EP_DBUF0_CNT.isra.0>:
  * @retval Counter value
  */
__STATIC_INLINE uint16_t PCD_GET_EP_DBUF0_CNT(const PCD_TypeDef *Instance, uint16_t bEpNum)
{
  UNUSED(Instance);
  __IO uint32_t count = PCD_RX_PMA_CNT;
 8000b20:	230a      	movs	r3, #10
__STATIC_INLINE uint16_t PCD_GET_EP_DBUF0_CNT(const PCD_TypeDef *Instance, uint16_t bEpNum)
 8000b22:	b082      	sub	sp, #8

  /* WA: few cycles for RX PMA descriptor to update */
  while (count > 0U)
  {
    count--;
 8000b24:	9301      	str	r3, [sp, #4]
  while (count > 0U)
 8000b26:	9b01      	ldr	r3, [sp, #4]
 8000b28:	2b00      	cmp	r3, #0
 8000b2a:	d107      	bne.n	8000b3c <PCD_GET_EP_DBUF0_CNT.isra.0+0x1c>
  }

  return (uint16_t)USB_DRD_GET_CHEP_DBUF0_CNT((Instance), (bEpNum));
 8000b2c:	4b05      	ldr	r3, [pc, #20]	@ (8000b44 <PCD_GET_EP_DBUF0_CNT.isra.0+0x24>)
 8000b2e:	00c0      	lsls	r0, r0, #3
 8000b30:	18c0      	adds	r0, r0, r3
 8000b32:	6800      	ldr	r0, [r0, #0]
 8000b34:	0180      	lsls	r0, r0, #6
 8000b36:	0d80      	lsrs	r0, r0, #22
}
 8000b38:	b002      	add	sp, #8
 8000b3a:	4770      	bx	lr
    count--;
 8000b3c:	9b01      	ldr	r3, [sp, #4]
 8000b3e:	3b01      	subs	r3, #1
 8000b40:	e7f0      	b.n	8000b24 <PCD_GET_EP_DBUF0_CNT.isra.0+0x4>
 8000b42:	46c0      	nop			@ (mov r8, r8)
 8000b44:	40009800 	.word	0x40009800

08000b48 <PCD_GET_EP_RX_CNT.isra.0>:
  __IO uint32_t count = PCD_RX_PMA_CNT;
 8000b48:	230a      	movs	r3, #10
__STATIC_INLINE uint16_t PCD_GET_EP_RX_CNT(const PCD_TypeDef *Instance, uint16_t bEpNum)
 8000b4a:	b082      	sub	sp, #8
    count--;
 8000b4c:	9301      	str	r3, [sp, #4]
  while (count > 0U)
 8000b4e:	9b01      	ldr	r3, [sp, #4]
 8000b50:	2b00      	cmp	r3, #0
 8000b52:	d107      	bne.n	8000b64 <PCD_GET_EP_RX_CNT.isra.0+0x1c>
  return (uint16_t)USB_DRD_GET_CHEP_RX_CNT((Instance), (bEpNum));
 8000b54:	4b05      	ldr	r3, [pc, #20]	@ (8000b6c <PCD_GET_EP_RX_CNT.isra.0+0x24>)
 8000b56:	00c0      	lsls	r0, r0, #3
 8000b58:	18c0      	adds	r0, r0, r3
 8000b5a:	6840      	ldr	r0, [r0, #4]
 8000b5c:	0180      	lsls	r0, r0, #6
 8000b5e:	0d80      	lsrs	r0, r0, #22
}
 8000b60:	b002      	add	sp, #8
 8000b62:	4770      	bx	lr
    count--;
 8000b64:	9b01      	ldr	r3, [sp, #4]
 8000b66:	3b01      	subs	r3, #1
 8000b68:	e7f0      	b.n	8000b4c <PCD_GET_EP_RX_CNT.isra.0+0x4>
 8000b6a:	46c0      	nop			@ (mov r8, r8)
 8000b6c:	40009800 	.word	0x40009800

08000b70 <HAL_PCD_Init>:
  *         parameters in the PCD_InitTypeDef and initialize the associated handle.
  * @param  hpcd PCD handle
  * @retval HAL status
  */
HAL_StatusTypeDef HAL_PCD_Init(PCD_HandleTypeDef *hpcd)
{
 8000b70:	b573      	push	{r0, r1, r4, r5, r6, lr}
 8000b72:	0004      	movs	r4, r0
  uint8_t i;

  /* Check the PCD handle allocation */
  if (hpcd == NULL)
  {
    return HAL_ERROR;
 8000b74:	2001      	movs	r0, #1
  if (hpcd == NULL)
 8000b76:	2c00      	cmp	r4, #0
 8000b78:	d02f      	beq.n	8000bda <HAL_PCD_Init+0x6a>
  }

  /* Check the parameters */
  assert_param(IS_PCD_ALL_INSTANCE(hpcd->Instance));

  if (hpcd->State == HAL_PCD_STATE_RESET)
 8000b7a:	4d24      	ldr	r5, [pc, #144]	@ (8000c0c <HAL_PCD_Init+0x9c>)
 8000b7c:	5d63      	ldrb	r3, [r4, r5]
 8000b7e:	b2da      	uxtb	r2, r3
 8000b80:	2b00      	cmp	r3, #0
 8000b82:	d105      	bne.n	8000b90 <HAL_PCD_Init+0x20>
  {
    /* Allocate lock resource and initialize it */
    hpcd->Lock = HAL_UNLOCKED;
 8000b84:	23a5      	movs	r3, #165	@ 0xa5
 8000b86:	009b      	lsls	r3, r3, #2

    /* Init the low level hardware */
    hpcd->MspInitCallback(hpcd);
#else
    /* Init the low level hardware : GPIO, CLOCK, NVIC... */
    HAL_PCD_MspInit(hpcd);
 8000b88:	0020      	movs	r0, r4
    hpcd->Lock = HAL_UNLOCKED;
 8000b8a:	54e2      	strb	r2, [r4, r3]
    HAL_PCD_MspInit(hpcd);
 8000b8c:	f002 fbb0 	bl	80032f0 <HAL_PCD_MspInit>
#endif /* (USE_HAL_PCD_REGISTER_CALLBACKS) */
  }

  hpcd->State = HAL_PCD_STATE_BUSY;
 8000b90:	2303      	movs	r3, #3
 8000b92:	5563      	strb	r3, [r4, r5]

  /* Disable the Interrupts */
  __HAL_PCD_DISABLE(hpcd);
 8000b94:	6820      	ldr	r0, [r4, #0]
 8000b96:	f001 faaf 	bl	80020f8 <USB_DisableGlobalInt>

  /* Init endpoints structures */
  for (i = 0U; i < hpcd->Init.dev_endpoints; i++)
 8000b9a:	2300      	movs	r3, #0
 8000b9c:	0022      	movs	r2, r4
 8000b9e:	0019      	movs	r1, r3
  {
    /* Init ep structure */
    hpcd->IN_ep[i].is_in = 1U;
 8000ba0:	2601      	movs	r6, #1
  for (i = 0U; i < hpcd->Init.dev_endpoints; i++)
 8000ba2:	7920      	ldrb	r0, [r4, #4]
 8000ba4:	3214      	adds	r2, #20
 8000ba6:	4298      	cmp	r0, r3
 8000ba8:	d118      	bne.n	8000bdc <HAL_PCD_Init+0x6c>
    hpcd->IN_ep[i].maxpacket = 0U;
    hpcd->IN_ep[i].xfer_buff = 0U;
    hpcd->IN_ep[i].xfer_len = 0U;
  }

  for (i = 0U; i < hpcd->Init.dev_endpoints; i++)
 8000baa:	2100      	movs	r1, #0
 8000bac:	0022      	movs	r2, r4
  {
    hpcd->OUT_ep[i].is_in = 0U;
 8000bae:	0008      	movs	r0, r1
 8000bb0:	3255      	adds	r2, #85	@ 0x55
 8000bb2:	32ff      	adds	r2, #255	@ 0xff
  for (i = 0U; i < hpcd->Init.dev_endpoints; i++)
 8000bb4:	428b      	cmp	r3, r1
 8000bb6:	d11b      	bne.n	8000bf0 <HAL_PCD_Init+0x80>
    hpcd->OUT_ep[i].xfer_buff = 0U;
    hpcd->OUT_ep[i].xfer_len = 0U;
  }

  /* Init Device */
  (void)USB_DevInit(hpcd->Instance, hpcd->Init);
 8000bb8:	466b      	mov	r3, sp
 8000bba:	7c22      	ldrb	r2, [r4, #16]
 8000bbc:	701a      	strb	r2, [r3, #0]
 8000bbe:	68e3      	ldr	r3, [r4, #12]
 8000bc0:	6861      	ldr	r1, [r4, #4]
 8000bc2:	68a2      	ldr	r2, [r4, #8]
 8000bc4:	6820      	ldr	r0, [r4, #0]
 8000bc6:	f001 fa9f 	bl	8002108 <USB_DevInit>

  hpcd->USB_Address = 0U;
 8000bca:	2300      	movs	r3, #0
 8000bcc:	7463      	strb	r3, [r4, #17]
  hpcd->State = HAL_PCD_STATE_READY;
 8000bce:	3301      	adds	r3, #1
 8000bd0:	5563      	strb	r3, [r4, r5]

  /* Activate LPM */
  if (hpcd->Init.lpm_enable == 1U)
 8000bd2:	7b23      	ldrb	r3, [r4, #12]
 8000bd4:	2b01      	cmp	r3, #1
 8000bd6:	d015      	beq.n	8000c04 <HAL_PCD_Init+0x94>
  {
    (void)HAL_PCDEx_ActivateLPM(hpcd);
  }

  return HAL_OK;
 8000bd8:	2000      	movs	r0, #0
}
 8000bda:	bd76      	pop	{r1, r2, r4, r5, r6, pc}
    hpcd->IN_ep[i].num = i;
 8000bdc:	7013      	strb	r3, [r2, #0]
  for (i = 0U; i < hpcd->Init.dev_endpoints; i++)
 8000bde:	3301      	adds	r3, #1
    hpcd->IN_ep[i].is_in = 1U;
 8000be0:	7056      	strb	r6, [r2, #1]
    hpcd->IN_ep[i].type = EP_TYPE_CTRL;
 8000be2:	70d1      	strb	r1, [r2, #3]
    hpcd->IN_ep[i].maxpacket = 0U;
 8000be4:	6111      	str	r1, [r2, #16]
    hpcd->IN_ep[i].xfer_buff = 0U;
 8000be6:	6151      	str	r1, [r2, #20]
    hpcd->IN_ep[i].xfer_len = 0U;
 8000be8:	6191      	str	r1, [r2, #24]
  for (i = 0U; i < hpcd->Init.dev_endpoints; i++)
 8000bea:	b2db      	uxtb	r3, r3
 8000bec:	3228      	adds	r2, #40	@ 0x28
 8000bee:	e7da      	b.n	8000ba6 <HAL_PCD_Init+0x36>
    hpcd->OUT_ep[i].num = i;
 8000bf0:	7011      	strb	r1, [r2, #0]
  for (i = 0U; i < hpcd->Init.dev_endpoints; i++)
 8000bf2:	3101      	adds	r1, #1
    hpcd->OUT_ep[i].is_in = 0U;
 8000bf4:	7050      	strb	r0, [r2, #1]
    hpcd->OUT_ep[i].type = EP_TYPE_CTRL;
 8000bf6:	70d0      	strb	r0, [r2, #3]
    hpcd->OUT_ep[i].maxpacket = 0U;
 8000bf8:	6110      	str	r0, [r2, #16]
    hpcd->OUT_ep[i].xfer_buff = 0U;
 8000bfa:	6150      	str	r0, [r2, #20]
    hpcd->OUT_ep[i].xfer_len = 0U;
 8000bfc:	6190      	str	r0, [r2, #24]
  for (i = 0U; i < hpcd->Init.dev_endpoints; i++)
 8000bfe:	b2c9      	uxtb	r1, r1
 8000c00:	3228      	adds	r2, #40	@ 0x28
 8000c02:	e7d7      	b.n	8000bb4 <HAL_PCD_Init+0x44>
    (void)HAL_PCDEx_ActivateLPM(hpcd);
 8000c04:	0020      	movs	r0, r4
 8000c06:	f000 fd92 	bl	800172e <HAL_PCDEx_ActivateLPM>
 8000c0a:	e7e5      	b.n	8000bd8 <HAL_PCD_Init+0x68>
 8000c0c:	00000295 	.word	0x00000295

08000c10 <HAL_PCD_Start>:
  * @brief  Start the USB device
  * @param  hpcd PCD handle
  * @retval HAL status
  */
HAL_StatusTypeDef HAL_PCD_Start(PCD_HandleTypeDef *hpcd)
{
 8000c10:	b570      	push	{r4, r5, r6, lr}
  __HAL_LOCK(hpcd);
 8000c12:	25a5      	movs	r5, #165	@ 0xa5
 8000c14:	00ad      	lsls	r5, r5, #2
 8000c16:	5d43      	ldrb	r3, [r0, r5]
{
 8000c18:	0004      	movs	r4, r0
  __HAL_LOCK(hpcd);
 8000c1a:	2002      	movs	r0, #2
 8000c1c:	2b01      	cmp	r3, #1
 8000c1e:	d009      	beq.n	8000c34 <HAL_PCD_Start+0x24>
 8000c20:	2301      	movs	r3, #1
 8000c22:	5563      	strb	r3, [r4, r5]
  __HAL_PCD_ENABLE(hpcd);
 8000c24:	6820      	ldr	r0, [r4, #0]
 8000c26:	f001 fa5f 	bl	80020e8 <USB_EnableGlobalInt>
  (void)USB_DevConnect(hpcd->Instance);
 8000c2a:	6820      	ldr	r0, [r4, #0]
 8000c2c:	f001 fc96 	bl	800255c <USB_DevConnect>
  __HAL_UNLOCK(hpcd);
 8000c30:	2000      	movs	r0, #0
 8000c32:	5560      	strb	r0, [r4, r5]

  return HAL_OK;
}
 8000c34:	bd70      	pop	{r4, r5, r6, pc}

08000c36 <HAL_PCD_SetAddress>:
  * @param  hpcd PCD handle
  * @param  address new device address
  * @retval HAL status
  */
HAL_StatusTypeDef HAL_PCD_SetAddress(PCD_HandleTypeDef *hpcd, uint8_t address)
{
 8000c36:	b570      	push	{r4, r5, r6, lr}
  __HAL_LOCK(hpcd);
 8000c38:	25a5      	movs	r5, #165	@ 0xa5
 8000c3a:	00ad      	lsls	r5, r5, #2
 8000c3c:	5d43      	ldrb	r3, [r0, r5]
{
 8000c3e:	0004      	movs	r4, r0
  __HAL_LOCK(hpcd);
 8000c40:	2002      	movs	r0, #2
 8000c42:	2b01      	cmp	r3, #1
 8000c44:	d007      	beq.n	8000c56 <HAL_PCD_SetAddress+0x20>
 8000c46:	2301      	movs	r3, #1
 8000c48:	5563      	strb	r3, [r4, r5]
  hpcd->USB_Address = address;
  (void)USB_SetDevAddress(hpcd->Instance, address);
 8000c4a:	6820      	ldr	r0, [r4, #0]
  hpcd->USB_Address = address;
 8000c4c:	7461      	strb	r1, [r4, #17]
  (void)USB_SetDevAddress(hpcd->Instance, address);
 8000c4e:	f001 fc7f 	bl	8002550 <USB_SetDevAddress>
  __HAL_UNLOCK(hpcd);
 8000c52:	2000      	movs	r0, #0
 8000c54:	5560      	strb	r0, [r4, r5]

  return HAL_OK;
}
 8000c56:	bd70      	pop	{r4, r5, r6, pc}

08000c58 <HAL_PCD_IRQHandler>:
{
 8000c58:	b5f0      	push	{r4, r5, r6, r7, lr}
 8000c5a:	0004      	movs	r4, r0
 8000c5c:	b089      	sub	sp, #36	@ 0x24
  uint32_t wIstr = USB_ReadInterrupts(hpcd->Instance);
 8000c5e:	6800      	ldr	r0, [r0, #0]
 8000c60:	f001 fc83 	bl	800256a <USB_ReadInterrupts>
  if ((SYSCFG->IT_LINE_SR[8] & (0x1UL << 2)) == 0U)
 8000c64:	2204      	movs	r2, #4
 8000c66:	4bcb      	ldr	r3, [pc, #812]	@ (8000f94 <HAL_PCD_IRQHandler+0x33c>)
 8000c68:	681b      	ldr	r3, [r3, #0]
 8000c6a:	4213      	tst	r3, r2
 8000c6c:	d06a      	beq.n	8000d44 <HAL_PCD_IRQHandler+0xec>
  if ((wIstr & USB_ISTR_CTR) == USB_ISTR_CTR)
 8000c6e:	2580      	movs	r5, #128	@ 0x80
 8000c70:	2380      	movs	r3, #128	@ 0x80
 8000c72:	022d      	lsls	r5, r5, #8
 8000c74:	021b      	lsls	r3, r3, #8
 8000c76:	4005      	ands	r5, r0
 8000c78:	4218      	tst	r0, r3
 8000c7a:	d100      	bne.n	8000c7e <HAL_PCD_IRQHandler+0x26>
 8000c7c:	e3c5      	b.n	800140a <HAL_PCD_IRQHandler+0x7b2>
#if (USE_USB_DOUBLE_BUFFER != 1U)
  count = 0U;
#endif /* USE_USB_DOUBLE_BUFFER */

  /* stay in loop while pending interrupts */
  while ((hpcd->Instance->ISTR & USB_ISTR_CTR) != 0U)
 8000c7e:	2280      	movs	r2, #128	@ 0x80
 8000c80:	6825      	ldr	r5, [r4, #0]
 8000c82:	0212      	lsls	r2, r2, #8
 8000c84:	6c6b      	ldr	r3, [r5, #68]	@ 0x44
 8000c86:	4213      	tst	r3, r2
 8000c88:	d05c      	beq.n	8000d44 <HAL_PCD_IRQHandler+0xec>
  {
    wIstr = (uint16_t)hpcd->Instance->ISTR;

    /* extract highest priority endpoint number */
    epindex = (uint8_t)(wIstr & USB_ISTR_IDN);
 8000c8a:	220f      	movs	r2, #15
    wIstr = (uint16_t)hpcd->Instance->ISTR;
 8000c8c:	6c6b      	ldr	r3, [r5, #68]	@ 0x44
    epindex = (uint8_t)(wIstr & USB_ISTR_IDN);
 8000c8e:	401a      	ands	r2, r3

    if (epindex >= 8U)
 8000c90:	0019      	movs	r1, r3
    epindex = (uint8_t)(wIstr & USB_ISTR_IDN);
 8000c92:	9201      	str	r2, [sp, #4]
    if (epindex >= 8U)
 8000c94:	2208      	movs	r2, #8
 8000c96:	4011      	ands	r1, r2
 8000c98:	9106      	str	r1, [sp, #24]
 8000c9a:	4213      	tst	r3, r2
 8000c9c:	d152      	bne.n	8000d44 <HAL_PCD_IRQHandler+0xec>
    {
      return HAL_ERROR;
    }

    if (epindex == 0U)
 8000c9e:	9a01      	ldr	r2, [sp, #4]
 8000ca0:	2a00      	cmp	r2, #0
 8000ca2:	d000      	beq.n	8000ca6 <HAL_PCD_IRQHandler+0x4e>
 8000ca4:	e090      	b.n	8000dc8 <HAL_PCD_IRQHandler+0x170>
    {
      /* Decode and service control endpoint interrupt */

      /* DIR bit = origin of the interrupt */
      if ((wIstr & USB_ISTR_DIR) == 0U)
 8000ca6:	2610      	movs	r6, #16
 8000ca8:	0019      	movs	r1, r3
 8000caa:	4031      	ands	r1, r6
 8000cac:	4233      	tst	r3, r6
 8000cae:	d121      	bne.n	8000cf4 <HAL_PCD_IRQHandler+0x9c>
      {
        /* DIR = 0 */

        /* DIR = 0 => IN  int */
        /* DIR = 0 implies that (EP_CTR_TX = 1) always */
        PCD_CLEAR_TX_EP_CTR(hpcd->Instance, PCD_ENDP0);
 8000cb0:	682b      	ldr	r3, [r5, #0]
 8000cb2:	4ab9      	ldr	r2, [pc, #740]	@ (8000f98 <HAL_PCD_IRQHandler+0x340>)

        /* TX COMPLETE */
#if (USE_HAL_PCD_REGISTER_CALLBACKS == 1U)
        hpcd->DataInStageCallback(hpcd, 0U);
#else
        HAL_PCD_DataInStageCallback(hpcd, 0U);
 8000cb4:	0020      	movs	r0, r4
        PCD_CLEAR_TX_EP_CTR(hpcd->Instance, PCD_ENDP0);
 8000cb6:	4013      	ands	r3, r2
 8000cb8:	2280      	movs	r2, #128	@ 0x80
 8000cba:	0212      	lsls	r2, r2, #8
 8000cbc:	4313      	orrs	r3, r2
 8000cbe:	602b      	str	r3, [r5, #0]
        ep->xfer_count = PCD_GET_EP_TX_CNT(hpcd->Instance, ep->num);
 8000cc0:	7d23      	ldrb	r3, [r4, #20]
 8000cc2:	4ab6      	ldr	r2, [pc, #728]	@ (8000f9c <HAL_PCD_IRQHandler+0x344>)
 8000cc4:	00db      	lsls	r3, r3, #3
 8000cc6:	189b      	adds	r3, r3, r2
 8000cc8:	681b      	ldr	r3, [r3, #0]
        ep->xfer_buff += ep->xfer_count;
 8000cca:	6aa2      	ldr	r2, [r4, #40]	@ 0x28
        ep->xfer_count = PCD_GET_EP_TX_CNT(hpcd->Instance, ep->num);
 8000ccc:	019b      	lsls	r3, r3, #6
 8000cce:	0d9b      	lsrs	r3, r3, #22
 8000cd0:	6323      	str	r3, [r4, #48]	@ 0x30
        ep->xfer_buff += ep->xfer_count;
 8000cd2:	18d3      	adds	r3, r2, r3
 8000cd4:	62a3      	str	r3, [r4, #40]	@ 0x28
        HAL_PCD_DataInStageCallback(hpcd, 0U);
 8000cd6:	f002 fb66 	bl	80033a6 <HAL_PCD_DataInStageCallback>
#endif /* USE_HAL_PCD_REGISTER_CALLBACKS */

        if ((hpcd->USB_Address > 0U) && (ep->xfer_len == 0U))
 8000cda:	7c63      	ldrb	r3, [r4, #17]
 8000cdc:	2b00      	cmp	r3, #0
 8000cde:	d0ce      	beq.n	8000c7e <HAL_PCD_IRQHandler+0x26>
 8000ce0:	6ae2      	ldr	r2, [r4, #44]	@ 0x2c
        {
          hpcd->Instance->DADDR = ((uint16_t)hpcd->USB_Address | USB_DADDR_EF);
 8000ce2:	6821      	ldr	r1, [r4, #0]
        if ((hpcd->USB_Address > 0U) && (ep->xfer_len == 0U))
 8000ce4:	2a00      	cmp	r2, #0
 8000ce6:	d1ca      	bne.n	8000c7e <HAL_PCD_IRQHandler+0x26>
          hpcd->Instance->DADDR = ((uint16_t)hpcd->USB_Address | USB_DADDR_EF);
 8000ce8:	2080      	movs	r0, #128	@ 0x80
 8000cea:	7c63      	ldrb	r3, [r4, #17]
 8000cec:	4303      	orrs	r3, r0
 8000cee:	64cb      	str	r3, [r1, #76]	@ 0x4c
          hpcd->USB_Address = 0U;
 8000cf0:	7462      	strb	r2, [r4, #17]
 8000cf2:	e7c4      	b.n	8000c7e <HAL_PCD_IRQHandler+0x26>
        /* DIR = 1 */

        /* DIR = 1 & CTR_RX => SETUP or OUT int */
        /* DIR = 1 & (CTR_TX | CTR_RX) => 2 int pending */
        ep = &hpcd->OUT_ep[0];
        wEPVal = (uint16_t)PCD_GET_ENDPOINT(hpcd->Instance, PCD_ENDP0);
 8000cf4:	682b      	ldr	r3, [r5, #0]

        if ((wEPVal & USB_EP_SETUP) != 0U)
 8000cf6:	2280      	movs	r2, #128	@ 0x80
 8000cf8:	001f      	movs	r7, r3
 8000cfa:	0112      	lsls	r2, r2, #4
 8000cfc:	4017      	ands	r7, r2
 8000cfe:	4213      	tst	r3, r2
 8000d00:	d033      	beq.n	8000d6a <HAL_PCD_IRQHandler+0x112>
        {
          /* Get SETUP Packet */
          ep->xfer_count = PCD_GET_EP_RX_CNT(hpcd->Instance, ep->num);
 8000d02:	23aa      	movs	r3, #170	@ 0xaa
 8000d04:	005b      	lsls	r3, r3, #1
 8000d06:	5ce0      	ldrb	r0, [r4, r3]
 8000d08:	f7ff ff1e 	bl	8000b48 <PCD_GET_EP_RX_CNT.isra.0>
 8000d0c:	0022      	movs	r2, r4
 8000d0e:	3255      	adds	r2, #85	@ 0x55
 8000d10:	32ff      	adds	r2, #255	@ 0xff
 8000d12:	0003      	movs	r3, r0
 8000d14:	4fa2      	ldr	r7, [pc, #648]	@ (8000fa0 <HAL_PCD_IRQHandler+0x348>)
 8000d16:	61d0      	str	r0, [r2, #28]

          if (ep->xfer_count != 8U)
 8000d18:	2808      	cmp	r0, #8
 8000d1a:	d015      	beq.n	8000d48 <HAL_PCD_IRQHandler+0xf0>
          {
            /* Set Stall condition for EP0 IN/OUT */
            PCD_SET_EP_RX_STATUS(hpcd->Instance, PCD_ENDP0, USB_EP_RX_STALL);
 8000d1c:	682a      	ldr	r2, [r5, #0]
 8000d1e:	4ba1      	ldr	r3, [pc, #644]	@ (8000fa4 <HAL_PCD_IRQHandler+0x34c>)
            PCD_SET_EP_TX_STATUS(hpcd->Instance, PCD_ENDP0, USB_EP_TX_STALL);
 8000d20:	49a1      	ldr	r1, [pc, #644]	@ (8000fa8 <HAL_PCD_IRQHandler+0x350>)
            PCD_SET_EP_RX_STATUS(hpcd->Instance, PCD_ENDP0, USB_EP_RX_STALL);
 8000d22:	401a      	ands	r2, r3
 8000d24:	2380      	movs	r3, #128	@ 0x80
 8000d26:	015b      	lsls	r3, r3, #5
 8000d28:	4053      	eors	r3, r2
 8000d2a:	4aa0      	ldr	r2, [pc, #640]	@ (8000fac <HAL_PCD_IRQHandler+0x354>)
 8000d2c:	4313      	orrs	r3, r2
 8000d2e:	602b      	str	r3, [r5, #0]
            PCD_SET_EP_TX_STATUS(hpcd->Instance, PCD_ENDP0, USB_EP_TX_STALL);
 8000d30:	682b      	ldr	r3, [r5, #0]
 8000d32:	400b      	ands	r3, r1
 8000d34:	405e      	eors	r6, r3

            /* SETUP bit kept frozen while CTR_RX = 1 */
            PCD_CLEAR_RX_EP_CTR(hpcd->Instance, PCD_ENDP0);
 8000d36:	2380      	movs	r3, #128	@ 0x80
            PCD_SET_EP_TX_STATUS(hpcd->Instance, PCD_ENDP0, USB_EP_TX_STALL);
 8000d38:	4332      	orrs	r2, r6
 8000d3a:	602a      	str	r2, [r5, #0]
            PCD_CLEAR_RX_EP_CTR(hpcd->Instance, PCD_ENDP0);
 8000d3c:	682a      	ldr	r2, [r5, #0]
 8000d3e:	403a      	ands	r2, r7
 8000d40:	4313      	orrs	r3, r2
 8000d42:	602b      	str	r3, [r5, #0]
}
 8000d44:	b009      	add	sp, #36	@ 0x24
 8000d46:	bdf0      	pop	{r4, r5, r6, r7, pc}

            return HAL_OK;
          }

          USB_ReadPMA(hpcd->Instance, (uint8_t *)hpcd->Setup,
 8000d48:	21a7      	movs	r1, #167	@ 0xa7
 8000d4a:	0089      	lsls	r1, r1, #2
 8000d4c:	0028      	movs	r0, r5
 8000d4e:	1861      	adds	r1, r4, r1
 8000d50:	88d2      	ldrh	r2, [r2, #6]
 8000d52:	f001 fdab 	bl	80028ac <USB_ReadPMA>
                      ep->pmaadress, (uint16_t)ep->xfer_count);

          /* SETUP bit kept frozen while CTR_RX = 1 */
          PCD_CLEAR_RX_EP_CTR(hpcd->Instance, PCD_ENDP0);
 8000d56:	2380      	movs	r3, #128	@ 0x80
 8000d58:	6821      	ldr	r1, [r4, #0]

          /* Process SETUP Packet*/
#if (USE_HAL_PCD_REGISTER_CALLBACKS == 1U)
          hpcd->SetupStageCallback(hpcd);
#else
          HAL_PCD_SetupStageCallback(hpcd);
 8000d5a:	0020      	movs	r0, r4
          PCD_CLEAR_RX_EP_CTR(hpcd->Instance, PCD_ENDP0);
 8000d5c:	680a      	ldr	r2, [r1, #0]
 8000d5e:	403a      	ands	r2, r7
 8000d60:	4313      	orrs	r3, r2
 8000d62:	600b      	str	r3, [r1, #0]
          HAL_PCD_SetupStageCallback(hpcd);
 8000d64:	f002 fb0a 	bl	800337c <HAL_PCD_SetupStageCallback>
 8000d68:	e789      	b.n	8000c7e <HAL_PCD_IRQHandler+0x26>
#endif /* USE_HAL_PCD_REGISTER_CALLBACKS */
        }
        else if ((wEPVal & USB_EP_VTRX) != 0U)
 8000d6a:	041b      	lsls	r3, r3, #16
 8000d6c:	d400      	bmi.n	8000d70 <HAL_PCD_IRQHandler+0x118>
 8000d6e:	e786      	b.n	8000c7e <HAL_PCD_IRQHandler+0x26>
        {
          PCD_CLEAR_RX_EP_CTR(hpcd->Instance, PCD_ENDP0);
 8000d70:	682a      	ldr	r2, [r5, #0]
 8000d72:	4b8b      	ldr	r3, [pc, #556]	@ (8000fa0 <HAL_PCD_IRQHandler+0x348>)

          /* Get Control Data OUT Packet */
          ep->xfer_count = PCD_GET_EP_RX_CNT(hpcd->Instance, ep->num);
 8000d74:	0026      	movs	r6, r4
          PCD_CLEAR_RX_EP_CTR(hpcd->Instance, PCD_ENDP0);
 8000d76:	401a      	ands	r2, r3
 8000d78:	2380      	movs	r3, #128	@ 0x80
 8000d7a:	4313      	orrs	r3, r2
 8000d7c:	602b      	str	r3, [r5, #0]
          ep->xfer_count = PCD_GET_EP_RX_CNT(hpcd->Instance, ep->num);
 8000d7e:	23aa      	movs	r3, #170	@ 0xaa
 8000d80:	005b      	lsls	r3, r3, #1
 8000d82:	5ce0      	ldrb	r0, [r4, r3]
 8000d84:	f7ff fee0 	bl	8000b48 <PCD_GET_EP_RX_CNT.isra.0>
 8000d88:	3655      	adds	r6, #85	@ 0x55
 8000d8a:	36ff      	adds	r6, #255	@ 0xff
 8000d8c:	1e03      	subs	r3, r0, #0
 8000d8e:	61f0      	str	r0, [r6, #28]

          if (ep->xfer_count == 0U)
 8000d90:	d109      	bne.n	8000da6 <HAL_PCD_IRQHandler+0x14e>
          {
            /* Status phase re-arm for next setup */
            PCD_SET_EP_RX_STATUS(hpcd->Instance, PCD_ENDP0, USB_EP_RX_VALID);
 8000d92:	682b      	ldr	r3, [r5, #0]
 8000d94:	4a83      	ldr	r2, [pc, #524]	@ (8000fa4 <HAL_PCD_IRQHandler+0x34c>)
 8000d96:	4013      	ands	r3, r2
 8000d98:	22c0      	movs	r2, #192	@ 0xc0
 8000d9a:	0192      	lsls	r2, r2, #6
 8000d9c:	405a      	eors	r2, r3
 8000d9e:	4b83      	ldr	r3, [pc, #524]	@ (8000fac <HAL_PCD_IRQHandler+0x354>)
 8000da0:	4313      	orrs	r3, r2
 8000da2:	602b      	str	r3, [r5, #0]
 8000da4:	e76b      	b.n	8000c7e <HAL_PCD_IRQHandler+0x26>
          }
          else
          {
            if (ep->xfer_buff != 0U)
 8000da6:	6971      	ldr	r1, [r6, #20]
 8000da8:	2900      	cmp	r1, #0
 8000daa:	d100      	bne.n	8000dae <HAL_PCD_IRQHandler+0x156>
 8000dac:	e767      	b.n	8000c7e <HAL_PCD_IRQHandler+0x26>
            {
              USB_ReadPMA(hpcd->Instance, ep->xfer_buff,
 8000dae:	0028      	movs	r0, r5
 8000db0:	88f2      	ldrh	r2, [r6, #6]
 8000db2:	f001 fd7b 	bl	80028ac <USB_ReadPMA>
                          ep->pmaadress, (uint16_t)ep->xfer_count);  /* max 64bytes */

              ep->xfer_buff += ep->xfer_count;
 8000db6:	6973      	ldr	r3, [r6, #20]
 8000db8:	69f2      	ldr	r2, [r6, #28]

              /* Process Control Data OUT Packet */
#if (USE_HAL_PCD_REGISTER_CALLBACKS == 1U)
              hpcd->DataOutStageCallback(hpcd, 0U);
#else
              HAL_PCD_DataOutStageCallback(hpcd, 0U);
 8000dba:	0039      	movs	r1, r7
              ep->xfer_buff += ep->xfer_count;
 8000dbc:	189b      	adds	r3, r3, r2
              HAL_PCD_DataOutStageCallback(hpcd, 0U);
 8000dbe:	0020      	movs	r0, r4
              ep->xfer_buff += ep->xfer_count;
 8000dc0:	6173      	str	r3, [r6, #20]
              HAL_PCD_DataOutStageCallback(hpcd, 0U);
 8000dc2:	f002 fae4 	bl	800338e <HAL_PCD_DataOutStageCallback>
 8000dc6:	e75a      	b.n	8000c7e <HAL_PCD_IRQHandler+0x26>
    }
    else
    {
      /* Decode and service non control endpoints interrupt */
      /* process related endpoint register */
      wEPVal = (uint16_t)PCD_GET_ENDPOINT(hpcd->Instance, epindex);
 8000dc8:	9b01      	ldr	r3, [sp, #4]
 8000dca:	009b      	lsls	r3, r3, #2
 8000dcc:	9305      	str	r3, [sp, #20]
 8000dce:	18eb      	adds	r3, r5, r3
 8000dd0:	681a      	ldr	r2, [r3, #0]
 8000dd2:	9204      	str	r2, [sp, #16]
 8000dd4:	466a      	mov	r2, sp
 8000dd6:	8a12      	ldrh	r2, [r2, #16]
 8000dd8:	9203      	str	r2, [sp, #12]

      if ((wEPVal & USB_EP_VTRX) != 0U)
 8000dda:	9a04      	ldr	r2, [sp, #16]
 8000ddc:	0412      	lsls	r2, r2, #16
 8000dde:	d400      	bmi.n	8000de2 <HAL_PCD_IRQHandler+0x18a>
 8000de0:	e07f      	b.n	8000ee2 <HAL_PCD_IRQHandler+0x28a>
      {
        /* clear int flag */
        PCD_CLEAR_RX_EP_CTR(hpcd->Instance, epindex);
 8000de2:	6819      	ldr	r1, [r3, #0]
 8000de4:	4a6e      	ldr	r2, [pc, #440]	@ (8000fa0 <HAL_PCD_IRQHandler+0x348>)
        ep = &hpcd->OUT_ep[epindex];

        /* OUT Single Buffering */
        if (ep->doublebuffer == 0U)
 8000de6:	2628      	movs	r6, #40	@ 0x28
        PCD_CLEAR_RX_EP_CTR(hpcd->Instance, epindex);
 8000de8:	4011      	ands	r1, r2
 8000dea:	2280      	movs	r2, #128	@ 0x80
 8000dec:	430a      	orrs	r2, r1
 8000dee:	601a      	str	r2, [r3, #0]
        if (ep->doublebuffer == 0U)
 8000df0:	9b01      	ldr	r3, [sp, #4]
 8000df2:	435e      	muls	r6, r3
 8000df4:	19a6      	adds	r6, r4, r6
 8000df6:	0033      	movs	r3, r6
 8000df8:	0032      	movs	r2, r6
 8000dfa:	3361      	adds	r3, #97	@ 0x61
 8000dfc:	33ff      	adds	r3, #255	@ 0xff
 8000dfe:	781b      	ldrb	r3, [r3, #0]
 8000e00:	3255      	adds	r2, #85	@ 0x55
 8000e02:	32ff      	adds	r2, #255	@ 0xff
 8000e04:	2b00      	cmp	r3, #0
 8000e06:	d10c      	bne.n	8000e22 <HAL_PCD_IRQHandler+0x1ca>
        {
          count = (uint16_t)PCD_GET_EP_RX_CNT(hpcd->Instance, ep->num);
 8000e08:	7810      	ldrb	r0, [r2, #0]
 8000e0a:	f7ff fe9d 	bl	8000b48 <PCD_GET_EP_RX_CNT.isra.0>
 8000e0e:	1e07      	subs	r7, r0, #0

          if (count != 0U)
 8000e10:	d04f      	beq.n	8000eb2 <HAL_PCD_IRQHandler+0x25a>
          {
            USB_ReadPMA(hpcd->Instance, ep->xfer_buff, ep->pmaadress, count);
 8000e12:	0033      	movs	r3, r6
 8000e14:	335b      	adds	r3, #91	@ 0x5b
              /* read from endpoint BUF1Addr buffer */
              count = (uint16_t)PCD_GET_EP_DBUF1_CNT(hpcd->Instance, ep->num);

              if (count != 0U)
              {
                USB_ReadPMA(hpcd->Instance, ep->xfer_buff, ep->pmaaddr1, count);
 8000e16:	33ff      	adds	r3, #255	@ 0xff
 8000e18:	36fc      	adds	r6, #252	@ 0xfc
 8000e1a:	881a      	ldrh	r2, [r3, #0]
 8000e1c:	6ef1      	ldr	r1, [r6, #108]	@ 0x6c
 8000e1e:	003b      	movs	r3, r7
 8000e20:	e044      	b.n	8000eac <HAL_PCD_IRQHandler+0x254>
          count = (uint16_t)PCD_GET_EP_RX_CNT(hpcd->Instance, ep->num);
 8000e22:	7813      	ldrb	r3, [r2, #0]
 8000e24:	9302      	str	r3, [sp, #8]
          if (ep->type == EP_TYPE_BULK)
 8000e26:	0033      	movs	r3, r6
 8000e28:	3358      	adds	r3, #88	@ 0x58
 8000e2a:	33ff      	adds	r3, #255	@ 0xff
 8000e2c:	781b      	ldrb	r3, [r3, #0]
 8000e2e:	2b02      	cmp	r3, #2
 8000e30:	d000      	beq.n	8000e34 <HAL_PCD_IRQHandler+0x1dc>
 8000e32:	e0da      	b.n	8000fea <HAL_PCD_IRQHandler+0x392>
                                      PCD_EPTypeDef *ep, uint16_t wEPVal)
{
  uint16_t count;

  /* Manage Buffer0 OUT */
  if ((wEPVal & USB_EP_DTOG_RX) != 0U)
 8000e34:	2380      	movs	r3, #128	@ 0x80
 8000e36:	9a03      	ldr	r2, [sp, #12]
 8000e38:	01db      	lsls	r3, r3, #7
 8000e3a:	401a      	ands	r2, r3
 8000e3c:	9207      	str	r2, [sp, #28]
 8000e3e:	9a03      	ldr	r2, [sp, #12]
  {
    /* Get count of received Data on buffer0 */
    count = (uint16_t)PCD_GET_EP_DBUF0_CNT(hpcd->Instance, ep->num);
 8000e40:	9802      	ldr	r0, [sp, #8]
 8000e42:	36fc      	adds	r6, #252	@ 0xfc
  if ((wEPVal & USB_EP_DTOG_RX) != 0U)
 8000e44:	421a      	tst	r2, r3
 8000e46:	d100      	bne.n	8000e4a <HAL_PCD_IRQHandler+0x1f2>
 8000e48:	e08d      	b.n	8000f66 <HAL_PCD_IRQHandler+0x30e>
    count = (uint16_t)PCD_GET_EP_DBUF0_CNT(hpcd->Instance, ep->num);
 8000e4a:	f7ff fe69 	bl	8000b20 <PCD_GET_EP_DBUF0_CNT.isra.0>

    if (ep->xfer_len >= count)
 8000e4e:	6f32      	ldr	r2, [r6, #112]	@ 0x70
    count = (uint16_t)PCD_GET_EP_DBUF0_CNT(hpcd->Instance, ep->num);
 8000e50:	0003      	movs	r3, r0
 8000e52:	0007      	movs	r7, r0
    if (ep->xfer_len >= count)
 8000e54:	4282      	cmp	r2, r0
 8000e56:	d20e      	bcs.n	8000e76 <HAL_PCD_IRQHandler+0x21e>
 8000e58:	9a06      	ldr	r2, [sp, #24]
 8000e5a:	6732      	str	r2, [r6, #112]	@ 0x70
    }

    if (ep->xfer_len == 0U)
    {
      /* Set NAK to OUT endpoint since double buffer is enabled */
      PCD_SET_EP_RX_STATUS(hpcd->Instance, ep->num, USB_EP_RX_NAK);
 8000e5c:	9a02      	ldr	r2, [sp, #8]
 8000e5e:	4851      	ldr	r0, [pc, #324]	@ (8000fa4 <HAL_PCD_IRQHandler+0x34c>)
 8000e60:	0092      	lsls	r2, r2, #2
 8000e62:	18aa      	adds	r2, r5, r2
 8000e64:	6811      	ldr	r1, [r2, #0]
 8000e66:	4001      	ands	r1, r0
 8000e68:	2080      	movs	r0, #128	@ 0x80
 8000e6a:	0180      	lsls	r0, r0, #6
 8000e6c:	4048      	eors	r0, r1
 8000e6e:	494f      	ldr	r1, [pc, #316]	@ (8000fac <HAL_PCD_IRQHandler+0x354>)
 8000e70:	4301      	orrs	r1, r0
 8000e72:	6011      	str	r1, [r2, #0]
 8000e74:	e002      	b.n	8000e7c <HAL_PCD_IRQHandler+0x224>
      ep->xfer_len -= count;
 8000e76:	1a12      	subs	r2, r2, r0
 8000e78:	6732      	str	r2, [r6, #112]	@ 0x70
    if (ep->xfer_len == 0U)
 8000e7a:	d0ef      	beq.n	8000e5c <HAL_PCD_IRQHandler+0x204>
    }

    /* Check if Buffer1 is in blocked state which requires to toggle */
    if ((wEPVal & USB_EP_DTOG_TX) != 0U)
 8000e7c:	9a03      	ldr	r2, [sp, #12]
 8000e7e:	0652      	lsls	r2, r2, #25
 8000e80:	d508      	bpl.n	8000e94 <HAL_PCD_IRQHandler+0x23c>
    {
      PCD_FREE_USER_BUFFER(hpcd->Instance, ep->num, 0U);
 8000e82:	9a02      	ldr	r2, [sp, #8]
 8000e84:	494a      	ldr	r1, [pc, #296]	@ (8000fb0 <HAL_PCD_IRQHandler+0x358>)
 8000e86:	0092      	lsls	r2, r2, #2
 8000e88:	18aa      	adds	r2, r5, r2
 8000e8a:	6810      	ldr	r0, [r2, #0]
 8000e8c:	4008      	ands	r0, r1
 8000e8e:	4949      	ldr	r1, [pc, #292]	@ (8000fb4 <HAL_PCD_IRQHandler+0x35c>)
 8000e90:	4301      	orrs	r1, r0
 8000e92:	6011      	str	r1, [r2, #0]
    }

    if (count != 0U)
 8000e94:	2b00      	cmp	r3, #0
 8000e96:	d00c      	beq.n	8000eb2 <HAL_PCD_IRQHandler+0x25a>
    {
      USB_ReadPMA(hpcd->Instance, ep->xfer_buff, ep->pmaaddr0, count);
 8000e98:	2128      	movs	r1, #40	@ 0x28
 8000e9a:	9a01      	ldr	r2, [sp, #4]
 8000e9c:	4351      	muls	r1, r2
 8000e9e:	1861      	adds	r1, r4, r1
 8000ea0:	000a      	movs	r2, r1
 8000ea2:	325d      	adds	r2, #93	@ 0x5d
      PCD_FREE_USER_BUFFER(hpcd->Instance, ep->num, 0U);
    }

    if (count != 0U)
    {
      USB_ReadPMA(hpcd->Instance, ep->xfer_buff, ep->pmaaddr1, count);
 8000ea4:	32ff      	adds	r2, #255	@ 0xff
 8000ea6:	31fc      	adds	r1, #252	@ 0xfc
 8000ea8:	8812      	ldrh	r2, [r2, #0]
 8000eaa:	6ec9      	ldr	r1, [r1, #108]	@ 0x6c
                USB_ReadPMA(hpcd->Instance, ep->xfer_buff, ep->pmaaddr1, count);
 8000eac:	0028      	movs	r0, r5
 8000eae:	f001 fcfd 	bl	80028ac <USB_ReadPMA>
        ep->xfer_count += count;
 8000eb2:	2228      	movs	r2, #40	@ 0x28
 8000eb4:	9901      	ldr	r1, [sp, #4]
 8000eb6:	4351      	muls	r1, r2
 8000eb8:	1863      	adds	r3, r4, r1
 8000eba:	33fc      	adds	r3, #252	@ 0xfc
 8000ebc:	6f58      	ldr	r0, [r3, #116]	@ 0x74
 8000ebe:	19c0      	adds	r0, r0, r7
 8000ec0:	6758      	str	r0, [r3, #116]	@ 0x74
        if ((ep->xfer_len == 0U) || (count < ep->maxpacket))
 8000ec2:	6f18      	ldr	r0, [r3, #112]	@ 0x70
 8000ec4:	2800      	cmp	r0, #0
 8000ec6:	d003      	beq.n	8000ed0 <HAL_PCD_IRQHandler+0x278>
 8000ec8:	6e98      	ldr	r0, [r3, #104]	@ 0x68
 8000eca:	4287      	cmp	r7, r0
 8000ecc:	d300      	bcc.n	8000ed0 <HAL_PCD_IRQHandler+0x278>
 8000ece:	e0ab      	b.n	8001028 <HAL_PCD_IRQHandler+0x3d0>
          HAL_PCD_DataOutStageCallback(hpcd, ep->num);
 8000ed0:	9b01      	ldr	r3, [sp, #4]
 8000ed2:	0020      	movs	r0, r4
 8000ed4:	435a      	muls	r2, r3
 8000ed6:	18a2      	adds	r2, r4, r2
 8000ed8:	3255      	adds	r2, #85	@ 0x55
 8000eda:	32ff      	adds	r2, #255	@ 0xff
 8000edc:	7811      	ldrb	r1, [r2, #0]
 8000ede:	f002 fa56 	bl	800338e <HAL_PCD_DataOutStageCallback>
        PCD_CLEAR_TX_EP_CTR(hpcd->Instance, epindex);
 8000ee2:	6823      	ldr	r3, [r4, #0]
 8000ee4:	9302      	str	r3, [sp, #8]
      if ((wEPVal & USB_EP_VTTX) != 0U)
 8000ee6:	9b04      	ldr	r3, [sp, #16]
 8000ee8:	061b      	lsls	r3, r3, #24
 8000eea:	d400      	bmi.n	8000eee <HAL_PCD_IRQHandler+0x296>
 8000eec:	e6c7      	b.n	8000c7e <HAL_PCD_IRQHandler+0x26>
        PCD_CLEAR_TX_EP_CTR(hpcd->Instance, epindex);
 8000eee:	9a02      	ldr	r2, [sp, #8]
 8000ef0:	9b05      	ldr	r3, [sp, #20]
 8000ef2:	4694      	mov	ip, r2
 8000ef4:	4463      	add	r3, ip
 8000ef6:	681a      	ldr	r2, [r3, #0]
 8000ef8:	4927      	ldr	r1, [pc, #156]	@ (8000f98 <HAL_PCD_IRQHandler+0x340>)
 8000efa:	400a      	ands	r2, r1
 8000efc:	2180      	movs	r1, #128	@ 0x80
 8000efe:	0209      	lsls	r1, r1, #8
 8000f00:	430a      	orrs	r2, r1
 8000f02:	601a      	str	r2, [r3, #0]
        if (ep->type == EP_TYPE_ISOC)
 8000f04:	2328      	movs	r3, #40	@ 0x28
 8000f06:	9901      	ldr	r1, [sp, #4]
 8000f08:	4359      	muls	r1, r3
 8000f0a:	1866      	adds	r6, r4, r1
 8000f0c:	7df2      	ldrb	r2, [r6, #23]
 8000f0e:	9205      	str	r2, [sp, #20]
 8000f10:	2a01      	cmp	r2, #1
 8000f12:	d000      	beq.n	8000f16 <HAL_PCD_IRQHandler+0x2be>
 8000f14:	e0ba      	b.n	800108c <HAL_PCD_IRQHandler+0x434>
          ep->xfer_len = 0U;
 8000f16:	9a01      	ldr	r2, [sp, #4]
 8000f18:	3201      	adds	r2, #1
 8000f1a:	4353      	muls	r3, r2
 8000f1c:	2200      	movs	r2, #0
 8000f1e:	18e3      	adds	r3, r4, r3
 8000f20:	605a      	str	r2, [r3, #4]
          if (ep->doublebuffer != 0U)
 8000f22:	1c73      	adds	r3, r6, #1
 8000f24:	7fdb      	ldrb	r3, [r3, #31]
 8000f26:	4293      	cmp	r3, r2
 8000f28:	d014      	beq.n	8000f54 <HAL_PCD_IRQHandler+0x2fc>
            if ((wEPVal & USB_EP_DTOG_TX) != 0U)
 8000f2a:	9b04      	ldr	r3, [sp, #16]
 8000f2c:	065b      	lsls	r3, r3, #25
 8000f2e:	d400      	bmi.n	8000f32 <HAL_PCD_IRQHandler+0x2da>
 8000f30:	e08f      	b.n	8001052 <HAL_PCD_IRQHandler+0x3fa>
              PCD_SET_EP_DBUF0_CNT(hpcd->Instance, ep->num, ep->is_in, 0U);
 8000f32:	7d73      	ldrb	r3, [r6, #21]
 8000f34:	4293      	cmp	r3, r2
 8000f36:	d000      	beq.n	8000f3a <HAL_PCD_IRQHandler+0x2e2>
 8000f38:	e080      	b.n	800103c <HAL_PCD_IRQHandler+0x3e4>
 8000f3a:	7d33      	ldrb	r3, [r6, #20]
 8000f3c:	4a17      	ldr	r2, [pc, #92]	@ (8000f9c <HAL_PCD_IRQHandler+0x344>)
 8000f3e:	00db      	lsls	r3, r3, #3
 8000f40:	189b      	adds	r3, r3, r2
 8000f42:	681a      	ldr	r2, [r3, #0]
 8000f44:	0192      	lsls	r2, r2, #6
 8000f46:	0992      	lsrs	r2, r2, #6
 8000f48:	601a      	str	r2, [r3, #0]
 8000f4a:	2280      	movs	r2, #128	@ 0x80
 8000f4c:	6819      	ldr	r1, [r3, #0]
 8000f4e:	0612      	lsls	r2, r2, #24
 8000f50:	430a      	orrs	r2, r1
 8000f52:	601a      	str	r2, [r3, #0]
          HAL_PCD_DataInStageCallback(hpcd, ep->num);
 8000f54:	2328      	movs	r3, #40	@ 0x28
 8000f56:	9a01      	ldr	r2, [sp, #4]
 8000f58:	4353      	muls	r3, r2
 8000f5a:	18e3      	adds	r3, r4, r3
 8000f5c:	7d19      	ldrb	r1, [r3, #20]
              HAL_PCD_DataInStageCallback(hpcd, ep->num);
 8000f5e:	0020      	movs	r0, r4
 8000f60:	f002 fa21 	bl	80033a6 <HAL_PCD_DataInStageCallback>
 8000f64:	e68b      	b.n	8000c7e <HAL_PCD_IRQHandler+0x26>
    count = (uint16_t)PCD_GET_EP_DBUF1_CNT(hpcd->Instance, ep->num);
 8000f66:	f7ff fdef 	bl	8000b48 <PCD_GET_EP_RX_CNT.isra.0>
    if (ep->xfer_len >= count)
 8000f6a:	6f32      	ldr	r2, [r6, #112]	@ 0x70
    count = (uint16_t)PCD_GET_EP_DBUF1_CNT(hpcd->Instance, ep->num);
 8000f6c:	0003      	movs	r3, r0
 8000f6e:	0007      	movs	r7, r0
    if (ep->xfer_len >= count)
 8000f70:	4282      	cmp	r2, r0
 8000f72:	d221      	bcs.n	8000fb8 <HAL_PCD_IRQHandler+0x360>
 8000f74:	9a07      	ldr	r2, [sp, #28]
 8000f76:	6732      	str	r2, [r6, #112]	@ 0x70
      PCD_SET_EP_RX_STATUS(hpcd->Instance, ep->num, USB_EP_RX_NAK);
 8000f78:	9a02      	ldr	r2, [sp, #8]
 8000f7a:	480a      	ldr	r0, [pc, #40]	@ (8000fa4 <HAL_PCD_IRQHandler+0x34c>)
 8000f7c:	0092      	lsls	r2, r2, #2
 8000f7e:	18aa      	adds	r2, r5, r2
 8000f80:	6811      	ldr	r1, [r2, #0]
 8000f82:	4001      	ands	r1, r0
 8000f84:	2080      	movs	r0, #128	@ 0x80
 8000f86:	0180      	lsls	r0, r0, #6
 8000f88:	4048      	eors	r0, r1
 8000f8a:	4908      	ldr	r1, [pc, #32]	@ (8000fac <HAL_PCD_IRQHandler+0x354>)
 8000f8c:	4301      	orrs	r1, r0
 8000f8e:	6011      	str	r1, [r2, #0]
 8000f90:	e015      	b.n	8000fbe <HAL_PCD_IRQHandler+0x366>
 8000f92:	46c0      	nop			@ (mov r8, r8)
 8000f94:	400100a0 	.word	0x400100a0
 8000f98:	07ff8f0f 	.word	0x07ff8f0f
 8000f9c:	40009800 	.word	0x40009800
 8000fa0:	07ff0f8f 	.word	0x07ff0f8f
 8000fa4:	07ffbf8f 	.word	0x07ffbf8f
 8000fa8:	07ff8fbf 	.word	0x07ff8fbf
 8000fac:	00008080 	.word	0x00008080
 8000fb0:	07ff8f8f 	.word	0x07ff8f8f
 8000fb4:	000080c0 	.word	0x000080c0
      ep->xfer_len -= count;
 8000fb8:	1a12      	subs	r2, r2, r0
 8000fba:	6732      	str	r2, [r6, #112]	@ 0x70
    if (ep->xfer_len == 0U)
 8000fbc:	d0dc      	beq.n	8000f78 <HAL_PCD_IRQHandler+0x320>
    if ((wEPVal & USB_EP_DTOG_TX) == 0U)
 8000fbe:	9a03      	ldr	r2, [sp, #12]
 8000fc0:	0652      	lsls	r2, r2, #25
 8000fc2:	d408      	bmi.n	8000fd6 <HAL_PCD_IRQHandler+0x37e>
      PCD_FREE_USER_BUFFER(hpcd->Instance, ep->num, 0U);
 8000fc4:	9a02      	ldr	r2, [sp, #8]
 8000fc6:	49d7      	ldr	r1, [pc, #860]	@ (8001324 <HAL_PCD_IRQHandler+0x6cc>)
 8000fc8:	0092      	lsls	r2, r2, #2
 8000fca:	18aa      	adds	r2, r5, r2
 8000fcc:	6810      	ldr	r0, [r2, #0]
 8000fce:	4008      	ands	r0, r1
 8000fd0:	49d5      	ldr	r1, [pc, #852]	@ (8001328 <HAL_PCD_IRQHandler+0x6d0>)
 8000fd2:	4301      	orrs	r1, r0
 8000fd4:	6011      	str	r1, [r2, #0]
    if (count != 0U)
 8000fd6:	2b00      	cmp	r3, #0
 8000fd8:	d100      	bne.n	8000fdc <HAL_PCD_IRQHandler+0x384>
 8000fda:	e76a      	b.n	8000eb2 <HAL_PCD_IRQHandler+0x25a>
      USB_ReadPMA(hpcd->Instance, ep->xfer_buff, ep->pmaaddr1, count);
 8000fdc:	2128      	movs	r1, #40	@ 0x28
 8000fde:	9a01      	ldr	r2, [sp, #4]
 8000fe0:	4351      	muls	r1, r2
 8000fe2:	1861      	adds	r1, r4, r1
 8000fe4:	000a      	movs	r2, r1
 8000fe6:	325f      	adds	r2, #95	@ 0x5f
 8000fe8:	e75c      	b.n	8000ea4 <HAL_PCD_IRQHandler+0x24c>
            PCD_FREE_USER_BUFFER(hpcd->Instance, ep->num, 0U);
 8000fea:	9b02      	ldr	r3, [sp, #8]
 8000fec:	49cd      	ldr	r1, [pc, #820]	@ (8001324 <HAL_PCD_IRQHandler+0x6cc>)
 8000fee:	009b      	lsls	r3, r3, #2
 8000ff0:	18eb      	adds	r3, r5, r3
 8000ff2:	6818      	ldr	r0, [r3, #0]
 8000ff4:	4008      	ands	r0, r1
 8000ff6:	49cc      	ldr	r1, [pc, #816]	@ (8001328 <HAL_PCD_IRQHandler+0x6d0>)
 8000ff8:	4301      	orrs	r1, r0
 8000ffa:	6019      	str	r1, [r3, #0]
            if ((PCD_GET_ENDPOINT(hpcd->Instance, ep->num) & USB_EP_DTOG_RX) != 0U)
 8000ffc:	7810      	ldrb	r0, [r2, #0]
 8000ffe:	0083      	lsls	r3, r0, #2
 8001000:	18eb      	adds	r3, r5, r3
 8001002:	681b      	ldr	r3, [r3, #0]
 8001004:	045b      	lsls	r3, r3, #17
 8001006:	d507      	bpl.n	8001018 <HAL_PCD_IRQHandler+0x3c0>
              count = (uint16_t)PCD_GET_EP_DBUF0_CNT(hpcd->Instance, ep->num);
 8001008:	f7ff fd8a 	bl	8000b20 <PCD_GET_EP_DBUF0_CNT.isra.0>
 800100c:	1e07      	subs	r7, r0, #0
              if (count != 0U)
 800100e:	d100      	bne.n	8001012 <HAL_PCD_IRQHandler+0x3ba>
 8001010:	e74f      	b.n	8000eb2 <HAL_PCD_IRQHandler+0x25a>
                USB_ReadPMA(hpcd->Instance, ep->xfer_buff, ep->pmaaddr0, count);
 8001012:	0033      	movs	r3, r6
 8001014:	335d      	adds	r3, #93	@ 0x5d
 8001016:	e6fe      	b.n	8000e16 <HAL_PCD_IRQHandler+0x1be>
              count = (uint16_t)PCD_GET_EP_DBUF1_CNT(hpcd->Instance, ep->num);
 8001018:	f7ff fd96 	bl	8000b48 <PCD_GET_EP_RX_CNT.isra.0>
 800101c:	1e07      	subs	r7, r0, #0
              if (count != 0U)
 800101e:	d100      	bne.n	8001022 <HAL_PCD_IRQHandler+0x3ca>
 8001020:	e747      	b.n	8000eb2 <HAL_PCD_IRQHandler+0x25a>
                USB_ReadPMA(hpcd->Instance, ep->xfer_buff, ep->pmaaddr1, count);
 8001022:	0033      	movs	r3, r6
 8001024:	335f      	adds	r3, #95	@ 0x5f
 8001026:	e6f6      	b.n	8000e16 <HAL_PCD_IRQHandler+0x1be>
          ep->xfer_buff += count;
 8001028:	6eda      	ldr	r2, [r3, #108]	@ 0x6c
        ep = &hpcd->OUT_ep[epindex];
 800102a:	3155      	adds	r1, #85	@ 0x55
          ep->xfer_buff += count;
 800102c:	19d2      	adds	r2, r2, r7
        ep = &hpcd->OUT_ep[epindex];
 800102e:	31ff      	adds	r1, #255	@ 0xff
          (void)USB_EPStartXfer(hpcd->Instance, ep);
 8001030:	6820      	ldr	r0, [r4, #0]
          ep->xfer_buff += count;
 8001032:	66da      	str	r2, [r3, #108]	@ 0x6c
        ep = &hpcd->OUT_ep[epindex];
 8001034:	1861      	adds	r1, r4, r1
          (void)USB_EPStartXfer(hpcd->Instance, ep);
 8001036:	f001 fac9 	bl	80025cc <USB_EPStartXfer>
 800103a:	e752      	b.n	8000ee2 <HAL_PCD_IRQHandler+0x28a>
              PCD_SET_EP_DBUF0_CNT(hpcd->Instance, ep->num, ep->is_in, 0U);
 800103c:	2b01      	cmp	r3, #1
 800103e:	d189      	bne.n	8000f54 <HAL_PCD_IRQHandler+0x2fc>
 8001040:	7d33      	ldrb	r3, [r6, #20]
 8001042:	4aba      	ldr	r2, [pc, #744]	@ (800132c <HAL_PCD_IRQHandler+0x6d4>)
 8001044:	00db      	lsls	r3, r3, #3
 8001046:	189b      	adds	r3, r3, r2
 8001048:	681a      	ldr	r2, [r3, #0]
 800104a:	b292      	uxth	r2, r2
 800104c:	601a      	str	r2, [r3, #0]
 800104e:	681a      	ldr	r2, [r3, #0]
 8001050:	e77f      	b.n	8000f52 <HAL_PCD_IRQHandler+0x2fa>
              PCD_SET_EP_DBUF1_CNT(hpcd->Instance, ep->num, ep->is_in, 0U);
 8001052:	7d73      	ldrb	r3, [r6, #21]
 8001054:	2b00      	cmp	r3, #0
 8001056:	d10d      	bne.n	8001074 <HAL_PCD_IRQHandler+0x41c>
 8001058:	7d33      	ldrb	r3, [r6, #20]
 800105a:	4ab4      	ldr	r2, [pc, #720]	@ (800132c <HAL_PCD_IRQHandler+0x6d4>)
 800105c:	00db      	lsls	r3, r3, #3
 800105e:	189b      	adds	r3, r3, r2
 8001060:	685a      	ldr	r2, [r3, #4]
 8001062:	0192      	lsls	r2, r2, #6
 8001064:	0992      	lsrs	r2, r2, #6
 8001066:	605a      	str	r2, [r3, #4]
 8001068:	2280      	movs	r2, #128	@ 0x80
 800106a:	6859      	ldr	r1, [r3, #4]
 800106c:	0612      	lsls	r2, r2, #24
 800106e:	430a      	orrs	r2, r1
 8001070:	605a      	str	r2, [r3, #4]
 8001072:	e76f      	b.n	8000f54 <HAL_PCD_IRQHandler+0x2fc>
 8001074:	2b01      	cmp	r3, #1
 8001076:	d000      	beq.n	800107a <HAL_PCD_IRQHandler+0x422>
 8001078:	e76c      	b.n	8000f54 <HAL_PCD_IRQHandler+0x2fc>
 800107a:	7d33      	ldrb	r3, [r6, #20]
 800107c:	4aab      	ldr	r2, [pc, #684]	@ (800132c <HAL_PCD_IRQHandler+0x6d4>)
 800107e:	00db      	lsls	r3, r3, #3
 8001080:	189b      	adds	r3, r3, r2
 8001082:	685a      	ldr	r2, [r3, #4]
 8001084:	b292      	uxth	r2, r2
 8001086:	605a      	str	r2, [r3, #4]
 8001088:	685a      	ldr	r2, [r3, #4]
 800108a:	e7f1      	b.n	8001070 <HAL_PCD_IRQHandler+0x418>
          if ((wEPVal & USB_EP_KIND) == 0U)
 800108c:	2380      	movs	r3, #128	@ 0x80
 800108e:	9804      	ldr	r0, [sp, #16]
 8001090:	9a04      	ldr	r2, [sp, #16]
 8001092:	005b      	lsls	r3, r3, #1
            TxPctSize = (uint16_t)PCD_GET_EP_TX_CNT(hpcd->Instance, ep->num);
 8001094:	7d35      	ldrb	r5, [r6, #20]
          if ((wEPVal & USB_EP_KIND) == 0U)
 8001096:	4018      	ands	r0, r3
 8001098:	421a      	tst	r2, r3
 800109a:	d119      	bne.n	80010d0 <HAL_PCD_IRQHandler+0x478>
            TxPctSize = (uint16_t)PCD_GET_EP_TX_CNT(hpcd->Instance, ep->num);
 800109c:	4aa3      	ldr	r2, [pc, #652]	@ (800132c <HAL_PCD_IRQHandler+0x6d4>)
 800109e:	00eb      	lsls	r3, r5, #3
 80010a0:	189b      	adds	r3, r3, r2
 80010a2:	681b      	ldr	r3, [r3, #0]
            if (ep->xfer_len > TxPctSize)
 80010a4:	6af2      	ldr	r2, [r6, #44]	@ 0x2c
            TxPctSize = (uint16_t)PCD_GET_EP_TX_CNT(hpcd->Instance, ep->num);
 80010a6:	019b      	lsls	r3, r3, #6
            if (ep->xfer_len > TxPctSize)
 80010a8:	0d9b      	lsrs	r3, r3, #22
 80010aa:	429a      	cmp	r2, r3
 80010ac:	d802      	bhi.n	80010b4 <HAL_PCD_IRQHandler+0x45c>
              HAL_PCD_DataInStageCallback(hpcd, ep->num);
 80010ae:	0029      	movs	r1, r5
 80010b0:	62f0      	str	r0, [r6, #44]	@ 0x2c
 80010b2:	e754      	b.n	8000f5e <HAL_PCD_IRQHandler+0x306>
              ep->xfer_len -= TxPctSize;
 80010b4:	1ad2      	subs	r2, r2, r3
 80010b6:	62f2      	str	r2, [r6, #44]	@ 0x2c
              ep->xfer_buff += TxPctSize;
 80010b8:	6ab2      	ldr	r2, [r6, #40]	@ 0x28
        ep = &hpcd->IN_ep[epindex];
 80010ba:	3114      	adds	r1, #20
              ep->xfer_buff += TxPctSize;
 80010bc:	18d2      	adds	r2, r2, r3
 80010be:	62b2      	str	r2, [r6, #40]	@ 0x28
              ep->xfer_count += TxPctSize;
 80010c0:	6b32      	ldr	r2, [r6, #48]	@ 0x30
              (void)USB_EPStartXfer(hpcd->Instance, ep);
 80010c2:	9802      	ldr	r0, [sp, #8]
              ep->xfer_count += TxPctSize;
 80010c4:	18d3      	adds	r3, r2, r3
 80010c6:	6333      	str	r3, [r6, #48]	@ 0x30
        ep = &hpcd->IN_ep[epindex];
 80010c8:	1861      	adds	r1, r4, r1
              (void)USB_EPStartXfer(hpcd->Instance, ep);
 80010ca:	f001 fa7f 	bl	80025cc <USB_EPStartXfer>
 80010ce:	e5d6      	b.n	8000c7e <HAL_PCD_IRQHandler+0x26>
{
  uint32_t len;
  uint16_t TxPctSize;

  /* Data Buffer0 ACK received */
  if ((wEPVal & USB_EP_DTOG_TX) != 0U)
 80010d0:	2340      	movs	r3, #64	@ 0x40
 80010d2:	9f03      	ldr	r7, [sp, #12]
 80010d4:	9a03      	ldr	r2, [sp, #12]
  {
    /* multi-packet on the NON control IN endpoint */
    TxPctSize = (uint16_t)PCD_GET_EP_DBUF0_CNT(hpcd->Instance, ep->num);
 80010d6:	0028      	movs	r0, r5
  if ((wEPVal & USB_EP_DTOG_TX) != 0U)
 80010d8:	401f      	ands	r7, r3
 80010da:	421a      	tst	r2, r3
 80010dc:	d100      	bne.n	80010e0 <HAL_PCD_IRQHandler+0x488>
 80010de:	e0d2      	b.n	8001286 <HAL_PCD_IRQHandler+0x62e>
    TxPctSize = (uint16_t)PCD_GET_EP_DBUF0_CNT(hpcd->Instance, ep->num);
 80010e0:	f7ff fd1e 	bl	8000b20 <PCD_GET_EP_DBUF0_CNT.isra.0>

    if (ep->xfer_len > TxPctSize)
 80010e4:	6af2      	ldr	r2, [r6, #44]	@ 0x2c
    {
      ep->xfer_len -= TxPctSize;
    }
    else
    {
      ep->xfer_len = 0U;
 80010e6:	2300      	movs	r3, #0
    if (ep->xfer_len > TxPctSize)
 80010e8:	4282      	cmp	r2, r0
 80010ea:	d900      	bls.n	80010ee <HAL_PCD_IRQHandler+0x496>
      ep->xfer_len -= TxPctSize;
 80010ec:	1a13      	subs	r3, r2, r0
 80010ee:	2280      	movs	r2, #128	@ 0x80
 80010f0:	9f03      	ldr	r7, [sp, #12]
 80010f2:	01d2      	lsls	r2, r2, #7
 80010f4:	62f3      	str	r3, [r6, #44]	@ 0x2c
    }

    /* Transfer is completed */
    if (ep->xfer_len == 0U)
 80010f6:	4017      	ands	r7, r2
 80010f8:	2b00      	cmp	r3, #0
 80010fa:	d14d      	bne.n	8001198 <HAL_PCD_IRQHandler+0x540>
    {
      PCD_SET_EP_DBUF0_CNT(hpcd->Instance, ep->num, ep->is_in, 0U);
 80010fc:	9a01      	ldr	r2, [sp, #4]
 80010fe:	3328      	adds	r3, #40	@ 0x28
 8001100:	4353      	muls	r3, r2
 8001102:	18e3      	adds	r3, r4, r3
 8001104:	7d5b      	ldrb	r3, [r3, #21]
 8001106:	2b00      	cmp	r3, #0
 8001108:	d136      	bne.n	8001178 <HAL_PCD_IRQHandler+0x520>
 800110a:	2180      	movs	r1, #128	@ 0x80
 800110c:	4a87      	ldr	r2, [pc, #540]	@ (800132c <HAL_PCD_IRQHandler+0x6d4>)
 800110e:	00eb      	lsls	r3, r5, #3
 8001110:	189b      	adds	r3, r3, r2
 8001112:	681a      	ldr	r2, [r3, #0]
 8001114:	0609      	lsls	r1, r1, #24
 8001116:	0192      	lsls	r2, r2, #6
 8001118:	0992      	lsrs	r2, r2, #6
 800111a:	601a      	str	r2, [r3, #0]
 800111c:	681a      	ldr	r2, [r3, #0]
 800111e:	430a      	orrs	r2, r1
 8001120:	601a      	str	r2, [r3, #0]
      PCD_SET_EP_DBUF1_CNT(hpcd->Instance, ep->num, ep->is_in, 0U);
 8001122:	685a      	ldr	r2, [r3, #4]
 8001124:	0192      	lsls	r2, r2, #6
 8001126:	0992      	lsrs	r2, r2, #6
 8001128:	605a      	str	r2, [r3, #4]
 800112a:	685a      	ldr	r2, [r3, #4]
 800112c:	4311      	orrs	r1, r2
 800112e:	6059      	str	r1, [r3, #4]

      if (ep->type == EP_TYPE_BULK)
 8001130:	9b05      	ldr	r3, [sp, #20]
 8001132:	2b02      	cmp	r3, #2
 8001134:	d10a      	bne.n	800114c <HAL_PCD_IRQHandler+0x4f4>
      {
        /* Set Bulk endpoint in NAK state */
        PCD_SET_EP_TX_STATUS(hpcd->Instance, ep->num, USB_EP_TX_NAK);
 8001136:	9a02      	ldr	r2, [sp, #8]
 8001138:	00ab      	lsls	r3, r5, #2
 800113a:	18d3      	adds	r3, r2, r3
 800113c:	681a      	ldr	r2, [r3, #0]
 800113e:	497c      	ldr	r1, [pc, #496]	@ (8001330 <HAL_PCD_IRQHandler+0x6d8>)
 8001140:	400a      	ands	r2, r1
 8001142:	2120      	movs	r1, #32
 8001144:	4051      	eors	r1, r2
 8001146:	4a7b      	ldr	r2, [pc, #492]	@ (8001334 <HAL_PCD_IRQHandler+0x6dc>)
 8001148:	430a      	orrs	r2, r1
 800114a:	601a      	str	r2, [r3, #0]

      /* TX COMPLETE */
#if (USE_HAL_PCD_REGISTER_CALLBACKS == 1U)
      hpcd->DataInStageCallback(hpcd, ep->num);
#else
      HAL_PCD_DataInStageCallback(hpcd, ep->num);
 800114c:	0029      	movs	r1, r5
 800114e:	0020      	movs	r0, r4
 8001150:	f002 f929 	bl	80033a6 <HAL_PCD_DataInStageCallback>
#endif /* USE_HAL_PCD_REGISTER_CALLBACKS */

      if ((wEPVal & USB_EP_DTOG_RX) != 0U)
 8001154:	2f00      	cmp	r7, #0
 8001156:	d100      	bne.n	800115a <HAL_PCD_IRQHandler+0x502>
 8001158:	e591      	b.n	8000c7e <HAL_PCD_IRQHandler+0x26>
#endif /* USE_HAL_PCD_REGISTER_CALLBACKS */

      /* need to Free USB Buff */
      if ((wEPVal & USB_EP_DTOG_RX) == 0U)
      {
        PCD_FREE_USER_BUFFER(hpcd->Instance, ep->num, 1U);
 800115a:	2328      	movs	r3, #40	@ 0x28
 800115c:	9a01      	ldr	r2, [sp, #4]
 800115e:	4353      	muls	r3, r2
 8001160:	18e3      	adds	r3, r4, r3
 8001162:	7d1a      	ldrb	r2, [r3, #20]
 8001164:	6823      	ldr	r3, [r4, #0]
 8001166:	0092      	lsls	r2, r2, #2
 8001168:	189b      	adds	r3, r3, r2
 800116a:	6819      	ldr	r1, [r3, #0]
 800116c:	4a6d      	ldr	r2, [pc, #436]	@ (8001324 <HAL_PCD_IRQHandler+0x6cc>)
 800116e:	4011      	ands	r1, r2
 8001170:	4a71      	ldr	r2, [pc, #452]	@ (8001338 <HAL_PCD_IRQHandler+0x6e0>)
      }
    }
  }

  /* Enable endpoint IN */
  PCD_SET_EP_TX_STATUS(hpcd->Instance, ep->num, USB_EP_TX_VALID);
 8001172:	430a      	orrs	r2, r1
 8001174:	601a      	str	r2, [r3, #0]

  return HAL_OK;
 8001176:	e582      	b.n	8000c7e <HAL_PCD_IRQHandler+0x26>
      PCD_SET_EP_DBUF0_CNT(hpcd->Instance, ep->num, ep->is_in, 0U);
 8001178:	2b01      	cmp	r3, #1
 800117a:	d1d9      	bne.n	8001130 <HAL_PCD_IRQHandler+0x4d8>
 800117c:	4a6b      	ldr	r2, [pc, #428]	@ (800132c <HAL_PCD_IRQHandler+0x6d4>)
 800117e:	00eb      	lsls	r3, r5, #3
 8001180:	189b      	adds	r3, r3, r2
 8001182:	681a      	ldr	r2, [r3, #0]
 8001184:	b292      	uxth	r2, r2
 8001186:	601a      	str	r2, [r3, #0]
 8001188:	681a      	ldr	r2, [r3, #0]
 800118a:	601a      	str	r2, [r3, #0]
      PCD_SET_EP_DBUF1_CNT(hpcd->Instance, ep->num, ep->is_in, 0U);
 800118c:	685a      	ldr	r2, [r3, #4]
 800118e:	b292      	uxth	r2, r2
 8001190:	605a      	str	r2, [r3, #4]
 8001192:	685a      	ldr	r2, [r3, #4]
 8001194:	605a      	str	r2, [r3, #4]
 8001196:	e7cb      	b.n	8001130 <HAL_PCD_IRQHandler+0x4d8>
      if ((wEPVal & USB_EP_DTOG_RX) != 0U)
 8001198:	2f00      	cmp	r7, #0
 800119a:	d008      	beq.n	80011ae <HAL_PCD_IRQHandler+0x556>
        PCD_FREE_USER_BUFFER(hpcd->Instance, ep->num, 1U);
 800119c:	9a02      	ldr	r2, [sp, #8]
 800119e:	00ab      	lsls	r3, r5, #2
 80011a0:	18d3      	adds	r3, r2, r3
 80011a2:	6819      	ldr	r1, [r3, #0]
 80011a4:	4a5f      	ldr	r2, [pc, #380]	@ (8001324 <HAL_PCD_IRQHandler+0x6cc>)
 80011a6:	4011      	ands	r1, r2
 80011a8:	4a63      	ldr	r2, [pc, #396]	@ (8001338 <HAL_PCD_IRQHandler+0x6e0>)
 80011aa:	430a      	orrs	r2, r1
 80011ac:	601a      	str	r2, [r3, #0]
      if (ep->xfer_fill_db == 1U)
 80011ae:	2228      	movs	r2, #40	@ 0x28
 80011b0:	9b01      	ldr	r3, [sp, #4]
 80011b2:	435a      	muls	r2, r3
 80011b4:	18a2      	adds	r2, r4, r2
 80011b6:	0017      	movs	r7, r2
 80011b8:	3738      	adds	r7, #56	@ 0x38
 80011ba:	783b      	ldrb	r3, [r7, #0]
 80011bc:	2b01      	cmp	r3, #1
 80011be:	d129      	bne.n	8001214 <HAL_PCD_IRQHandler+0x5bc>
        ep->xfer_buff += TxPctSize;
 80011c0:	6a91      	ldr	r1, [r2, #40]	@ 0x28
 80011c2:	1809      	adds	r1, r1, r0
 80011c4:	6291      	str	r1, [r2, #40]	@ 0x28
        ep->xfer_count += TxPctSize;
 80011c6:	6b33      	ldr	r3, [r6, #48]	@ 0x30
 80011c8:	181b      	adds	r3, r3, r0
 80011ca:	6333      	str	r3, [r6, #48]	@ 0x30
        if (ep->xfer_len_db >= ep->maxpacket)
 80011cc:	6b56      	ldr	r6, [r2, #52]	@ 0x34
 80011ce:	6a53      	ldr	r3, [r2, #36]	@ 0x24
 80011d0:	429e      	cmp	r6, r3
 80011d2:	d32e      	bcc.n	8001232 <HAL_PCD_IRQHandler+0x5da>
          ep->xfer_len_db -= len;
 80011d4:	1af6      	subs	r6, r6, r3
 80011d6:	6356      	str	r6, [r2, #52]	@ 0x34
        PCD_SET_EP_DBUF0_CNT(hpcd->Instance, ep->num, ep->is_in, len);
 80011d8:	2228      	movs	r2, #40	@ 0x28
 80011da:	9801      	ldr	r0, [sp, #4]
 80011dc:	4342      	muls	r2, r0
 80011de:	18a2      	adds	r2, r4, r2
 80011e0:	7d52      	ldrb	r2, [r2, #21]
 80011e2:	2a00      	cmp	r2, #0
 80011e4:	d144      	bne.n	8001270 <HAL_PCD_IRQHandler+0x618>
 80011e6:	4a51      	ldr	r2, [pc, #324]	@ (800132c <HAL_PCD_IRQHandler+0x6d4>)
 80011e8:	00ed      	lsls	r5, r5, #3
 80011ea:	18ad      	adds	r5, r5, r2
 80011ec:	682a      	ldr	r2, [r5, #0]
 80011ee:	0192      	lsls	r2, r2, #6
 80011f0:	0992      	lsrs	r2, r2, #6
 80011f2:	602a      	str	r2, [r5, #0]
 80011f4:	2b00      	cmp	r3, #0
 80011f6:	d126      	bne.n	8001246 <HAL_PCD_IRQHandler+0x5ee>
 80011f8:	2280      	movs	r2, #128	@ 0x80
 80011fa:	6828      	ldr	r0, [r5, #0]
 80011fc:	0612      	lsls	r2, r2, #24
 80011fe:	4302      	orrs	r2, r0
 8001200:	602a      	str	r2, [r5, #0]
        USB_WritePMA(hpcd->Instance, ep->xfer_buff,  ep->pmaaddr0, (uint16_t)len);
 8001202:	2228      	movs	r2, #40	@ 0x28
 8001204:	9801      	ldr	r0, [sp, #4]
 8001206:	b29b      	uxth	r3, r3
 8001208:	4342      	muls	r2, r0
 800120a:	18a2      	adds	r2, r4, r2
 800120c:	8b92      	ldrh	r2, [r2, #28]
        USB_WritePMA(hpcd->Instance, ep->xfer_buff,  ep->pmaaddr1, (uint16_t)len);
 800120e:	9802      	ldr	r0, [sp, #8]
 8001210:	f001 f9ae 	bl	8002570 <USB_WritePMA>
  PCD_SET_EP_TX_STATUS(hpcd->Instance, ep->num, USB_EP_TX_VALID);
 8001214:	2328      	movs	r3, #40	@ 0x28
 8001216:	9a01      	ldr	r2, [sp, #4]
 8001218:	4945      	ldr	r1, [pc, #276]	@ (8001330 <HAL_PCD_IRQHandler+0x6d8>)
 800121a:	4353      	muls	r3, r2
 800121c:	18e3      	adds	r3, r4, r3
 800121e:	7d1a      	ldrb	r2, [r3, #20]
 8001220:	6823      	ldr	r3, [r4, #0]
 8001222:	0092      	lsls	r2, r2, #2
 8001224:	189b      	adds	r3, r3, r2
 8001226:	681a      	ldr	r2, [r3, #0]
 8001228:	400a      	ands	r2, r1
 800122a:	2130      	movs	r1, #48	@ 0x30
 800122c:	4051      	eors	r1, r2
 800122e:	4a41      	ldr	r2, [pc, #260]	@ (8001334 <HAL_PCD_IRQHandler+0x6dc>)
 8001230:	e79f      	b.n	8001172 <HAL_PCD_IRQHandler+0x51a>
        else if (ep->xfer_len_db == 0U)
 8001232:	2e00      	cmp	r6, #0
 8001234:	d102      	bne.n	800123c <HAL_PCD_IRQHandler+0x5e4>
          len = TxPctSize;
 8001236:	0003      	movs	r3, r0
          ep->xfer_fill_db = 0U;
 8001238:	703e      	strb	r6, [r7, #0]
 800123a:	e7cd      	b.n	80011d8 <HAL_PCD_IRQHandler+0x580>
          ep->xfer_fill_db = 0U;
 800123c:	2300      	movs	r3, #0
 800123e:	703b      	strb	r3, [r7, #0]
          ep->xfer_len_db = 0U;
 8001240:	6353      	str	r3, [r2, #52]	@ 0x34
          len = ep->xfer_len_db;
 8001242:	0033      	movs	r3, r6
 8001244:	e7c8      	b.n	80011d8 <HAL_PCD_IRQHandler+0x580>
        PCD_SET_EP_DBUF0_CNT(hpcd->Instance, ep->num, ep->is_in, len);
 8001246:	2b3e      	cmp	r3, #62	@ 0x3e
 8001248:	d806      	bhi.n	8001258 <HAL_PCD_IRQHandler+0x600>
 800124a:	2001      	movs	r0, #1
 800124c:	085a      	lsrs	r2, r3, #1
 800124e:	4018      	ands	r0, r3
 8001250:	1812      	adds	r2, r2, r0
 8001252:	0692      	lsls	r2, r2, #26
 8001254:	6828      	ldr	r0, [r5, #0]
 8001256:	e7d2      	b.n	80011fe <HAL_PCD_IRQHandler+0x5a6>
 8001258:	201f      	movs	r0, #31
 800125a:	4018      	ands	r0, r3
 800125c:	4246      	negs	r6, r0
 800125e:	4170      	adcs	r0, r6
 8001260:	095a      	lsrs	r2, r3, #5
 8001262:	1a12      	subs	r2, r2, r0
 8001264:	6828      	ldr	r0, [r5, #0]
 8001266:	0692      	lsls	r2, r2, #26
 8001268:	4302      	orrs	r2, r0
 800126a:	2080      	movs	r0, #128	@ 0x80
 800126c:	0600      	lsls	r0, r0, #24
 800126e:	e7c6      	b.n	80011fe <HAL_PCD_IRQHandler+0x5a6>
 8001270:	2a01      	cmp	r2, #1
 8001272:	d1c6      	bne.n	8001202 <HAL_PCD_IRQHandler+0x5aa>
 8001274:	4a2d      	ldr	r2, [pc, #180]	@ (800132c <HAL_PCD_IRQHandler+0x6d4>)
 8001276:	00ed      	lsls	r5, r5, #3
 8001278:	18ad      	adds	r5, r5, r2
 800127a:	682a      	ldr	r2, [r5, #0]
 800127c:	b292      	uxth	r2, r2
 800127e:	602a      	str	r2, [r5, #0]
 8001280:	6828      	ldr	r0, [r5, #0]
 8001282:	041a      	lsls	r2, r3, #16
 8001284:	e7bb      	b.n	80011fe <HAL_PCD_IRQHandler+0x5a6>
    TxPctSize = (uint16_t)PCD_GET_EP_DBUF1_CNT(hpcd->Instance, ep->num);
 8001286:	f7ff fc5f 	bl	8000b48 <PCD_GET_EP_RX_CNT.isra.0>
    if (ep->xfer_len >= TxPctSize)
 800128a:	6af2      	ldr	r2, [r6, #44]	@ 0x2c
      ep->xfer_len = 0U;
 800128c:	003b      	movs	r3, r7
    if (ep->xfer_len >= TxPctSize)
 800128e:	4282      	cmp	r2, r0
 8001290:	d300      	bcc.n	8001294 <HAL_PCD_IRQHandler+0x63c>
      ep->xfer_len -= TxPctSize;
 8001292:	1a13      	subs	r3, r2, r0
 8001294:	2280      	movs	r2, #128	@ 0x80
 8001296:	9f03      	ldr	r7, [sp, #12]
 8001298:	01d2      	lsls	r2, r2, #7
 800129a:	62f3      	str	r3, [r6, #44]	@ 0x2c
    if (ep->xfer_len == 0U)
 800129c:	4017      	ands	r7, r2
 800129e:	2b00      	cmp	r3, #0
 80012a0:	d14c      	bne.n	800133c <HAL_PCD_IRQHandler+0x6e4>
      PCD_SET_EP_DBUF0_CNT(hpcd->Instance, ep->num, ep->is_in, 0U);
 80012a2:	9a01      	ldr	r2, [sp, #4]
 80012a4:	3328      	adds	r3, #40	@ 0x28
 80012a6:	4353      	muls	r3, r2
 80012a8:	18e3      	adds	r3, r4, r3
 80012aa:	7d5b      	ldrb	r3, [r3, #21]
 80012ac:	2b00      	cmp	r3, #0
 80012ae:	d128      	bne.n	8001302 <HAL_PCD_IRQHandler+0x6aa>
 80012b0:	2180      	movs	r1, #128	@ 0x80
 80012b2:	4a1e      	ldr	r2, [pc, #120]	@ (800132c <HAL_PCD_IRQHandler+0x6d4>)
 80012b4:	00eb      	lsls	r3, r5, #3
 80012b6:	189b      	adds	r3, r3, r2
 80012b8:	681a      	ldr	r2, [r3, #0]
 80012ba:	0609      	lsls	r1, r1, #24
 80012bc:	0192      	lsls	r2, r2, #6
 80012be:	0992      	lsrs	r2, r2, #6
 80012c0:	601a      	str	r2, [r3, #0]
 80012c2:	681a      	ldr	r2, [r3, #0]
 80012c4:	430a      	orrs	r2, r1
 80012c6:	601a      	str	r2, [r3, #0]
      PCD_SET_EP_DBUF1_CNT(hpcd->Instance, ep->num, ep->is_in, 0U);
 80012c8:	685a      	ldr	r2, [r3, #4]
 80012ca:	0192      	lsls	r2, r2, #6
 80012cc:	0992      	lsrs	r2, r2, #6
 80012ce:	605a      	str	r2, [r3, #4]
 80012d0:	685a      	ldr	r2, [r3, #4]
 80012d2:	4311      	orrs	r1, r2
 80012d4:	6059      	str	r1, [r3, #4]
      if (ep->type == EP_TYPE_BULK)
 80012d6:	9b05      	ldr	r3, [sp, #20]
 80012d8:	2b02      	cmp	r3, #2
 80012da:	d10a      	bne.n	80012f2 <HAL_PCD_IRQHandler+0x69a>
        PCD_SET_EP_TX_STATUS(hpcd->Instance, ep->num, USB_EP_TX_NAK);
 80012dc:	9a02      	ldr	r2, [sp, #8]
 80012de:	00ab      	lsls	r3, r5, #2
 80012e0:	18d3      	adds	r3, r2, r3
 80012e2:	681a      	ldr	r2, [r3, #0]
 80012e4:	4912      	ldr	r1, [pc, #72]	@ (8001330 <HAL_PCD_IRQHandler+0x6d8>)
 80012e6:	400a      	ands	r2, r1
 80012e8:	2120      	movs	r1, #32
 80012ea:	4051      	eors	r1, r2
 80012ec:	4a11      	ldr	r2, [pc, #68]	@ (8001334 <HAL_PCD_IRQHandler+0x6dc>)
 80012ee:	430a      	orrs	r2, r1
 80012f0:	601a      	str	r2, [r3, #0]
      HAL_PCD_DataInStageCallback(hpcd, ep->num);
 80012f2:	0029      	movs	r1, r5
 80012f4:	0020      	movs	r0, r4
 80012f6:	f002 f856 	bl	80033a6 <HAL_PCD_DataInStageCallback>
      if ((wEPVal & USB_EP_DTOG_RX) == 0U)
 80012fa:	2f00      	cmp	r7, #0
 80012fc:	d000      	beq.n	8001300 <HAL_PCD_IRQHandler+0x6a8>
 80012fe:	e4be      	b.n	8000c7e <HAL_PCD_IRQHandler+0x26>
 8001300:	e72b      	b.n	800115a <HAL_PCD_IRQHandler+0x502>
      PCD_SET_EP_DBUF0_CNT(hpcd->Instance, ep->num, ep->is_in, 0U);
 8001302:	2b01      	cmp	r3, #1
 8001304:	d1e7      	bne.n	80012d6 <HAL_PCD_IRQHandler+0x67e>
 8001306:	4a09      	ldr	r2, [pc, #36]	@ (800132c <HAL_PCD_IRQHandler+0x6d4>)
 8001308:	00eb      	lsls	r3, r5, #3
 800130a:	189b      	adds	r3, r3, r2
 800130c:	681a      	ldr	r2, [r3, #0]
 800130e:	b292      	uxth	r2, r2
 8001310:	601a      	str	r2, [r3, #0]
 8001312:	681a      	ldr	r2, [r3, #0]
 8001314:	601a      	str	r2, [r3, #0]
      PCD_SET_EP_DBUF1_CNT(hpcd->Instance, ep->num, ep->is_in, 0U);
 8001316:	685a      	ldr	r2, [r3, #4]
 8001318:	b292      	uxth	r2, r2
 800131a:	605a      	str	r2, [r3, #4]
 800131c:	685a      	ldr	r2, [r3, #4]
 800131e:	605a      	str	r2, [r3, #4]
 8001320:	e7d9      	b.n	80012d6 <HAL_PCD_IRQHandler+0x67e>
 8001322:	46c0      	nop			@ (mov r8, r8)
 8001324:	07ff8f8f 	.word	0x07ff8f8f
 8001328:	000080c0 	.word	0x000080c0
 800132c:	40009800 	.word	0x40009800
 8001330:	07ff8fbf 	.word	0x07ff8fbf
 8001334:	00008080 	.word	0x00008080
 8001338:	0000c080 	.word	0x0000c080
      if ((wEPVal & USB_EP_DTOG_RX) == 0U)
 800133c:	2f00      	cmp	r7, #0
 800133e:	d108      	bne.n	8001352 <HAL_PCD_IRQHandler+0x6fa>
        PCD_FREE_USER_BUFFER(hpcd->Instance, ep->num, 1U);
 8001340:	9a02      	ldr	r2, [sp, #8]
 8001342:	00ab      	lsls	r3, r5, #2
 8001344:	18d3      	adds	r3, r2, r3
 8001346:	6819      	ldr	r1, [r3, #0]
 8001348:	4a70      	ldr	r2, [pc, #448]	@ (800150c <HAL_PCD_IRQHandler+0x8b4>)
 800134a:	4011      	ands	r1, r2
 800134c:	4a70      	ldr	r2, [pc, #448]	@ (8001510 <HAL_PCD_IRQHandler+0x8b8>)
 800134e:	430a      	orrs	r2, r1
 8001350:	601a      	str	r2, [r3, #0]
      if (ep->xfer_fill_db == 1U)
 8001352:	2228      	movs	r2, #40	@ 0x28
 8001354:	9b01      	ldr	r3, [sp, #4]
 8001356:	435a      	muls	r2, r3
 8001358:	18a2      	adds	r2, r4, r2
 800135a:	0017      	movs	r7, r2
 800135c:	3738      	adds	r7, #56	@ 0x38
 800135e:	783b      	ldrb	r3, [r7, #0]
 8001360:	2b01      	cmp	r3, #1
 8001362:	d000      	beq.n	8001366 <HAL_PCD_IRQHandler+0x70e>
 8001364:	e756      	b.n	8001214 <HAL_PCD_IRQHandler+0x5bc>
        ep->xfer_buff += TxPctSize;
 8001366:	6a91      	ldr	r1, [r2, #40]	@ 0x28
 8001368:	1809      	adds	r1, r1, r0
 800136a:	6291      	str	r1, [r2, #40]	@ 0x28
        ep->xfer_count += TxPctSize;
 800136c:	6b33      	ldr	r3, [r6, #48]	@ 0x30
 800136e:	181b      	adds	r3, r3, r0
 8001370:	6333      	str	r3, [r6, #48]	@ 0x30
        if (ep->xfer_len_db >= ep->maxpacket)
 8001372:	6b56      	ldr	r6, [r2, #52]	@ 0x34
 8001374:	6a53      	ldr	r3, [r2, #36]	@ 0x24
 8001376:	429e      	cmp	r6, r3
 8001378:	d31d      	bcc.n	80013b6 <HAL_PCD_IRQHandler+0x75e>
          ep->xfer_len_db -= len;
 800137a:	1af6      	subs	r6, r6, r3
 800137c:	6356      	str	r6, [r2, #52]	@ 0x34
        PCD_SET_EP_DBUF1_CNT(hpcd->Instance, ep->num, ep->is_in, len);
 800137e:	2228      	movs	r2, #40	@ 0x28
 8001380:	9801      	ldr	r0, [sp, #4]
 8001382:	4342      	muls	r2, r0
 8001384:	18a2      	adds	r2, r4, r2
 8001386:	7d52      	ldrb	r2, [r2, #21]
 8001388:	2a00      	cmp	r2, #0
 800138a:	d133      	bne.n	80013f4 <HAL_PCD_IRQHandler+0x79c>
 800138c:	4a61      	ldr	r2, [pc, #388]	@ (8001514 <HAL_PCD_IRQHandler+0x8bc>)
 800138e:	00ed      	lsls	r5, r5, #3
 8001390:	18ad      	adds	r5, r5, r2
 8001392:	686a      	ldr	r2, [r5, #4]
 8001394:	0192      	lsls	r2, r2, #6
 8001396:	0992      	lsrs	r2, r2, #6
 8001398:	606a      	str	r2, [r5, #4]
 800139a:	2b00      	cmp	r3, #0
 800139c:	d115      	bne.n	80013ca <HAL_PCD_IRQHandler+0x772>
 800139e:	2280      	movs	r2, #128	@ 0x80
 80013a0:	6868      	ldr	r0, [r5, #4]
 80013a2:	0612      	lsls	r2, r2, #24
 80013a4:	4302      	orrs	r2, r0
 80013a6:	606a      	str	r2, [r5, #4]
        USB_WritePMA(hpcd->Instance, ep->xfer_buff,  ep->pmaaddr1, (uint16_t)len);
 80013a8:	2228      	movs	r2, #40	@ 0x28
 80013aa:	9801      	ldr	r0, [sp, #4]
 80013ac:	b29b      	uxth	r3, r3
 80013ae:	4342      	muls	r2, r0
 80013b0:	18a2      	adds	r2, r4, r2
 80013b2:	8bd2      	ldrh	r2, [r2, #30]
 80013b4:	e72b      	b.n	800120e <HAL_PCD_IRQHandler+0x5b6>
        else if (ep->xfer_len_db == 0U)
 80013b6:	2e00      	cmp	r6, #0
 80013b8:	d102      	bne.n	80013c0 <HAL_PCD_IRQHandler+0x768>
          len = TxPctSize;
 80013ba:	0003      	movs	r3, r0
          ep->xfer_fill_db = 0U;
 80013bc:	703e      	strb	r6, [r7, #0]
 80013be:	e7de      	b.n	800137e <HAL_PCD_IRQHandler+0x726>
          ep->xfer_len_db = 0U;
 80013c0:	2300      	movs	r3, #0
 80013c2:	6353      	str	r3, [r2, #52]	@ 0x34
          ep->xfer_fill_db = 0;
 80013c4:	703b      	strb	r3, [r7, #0]
          len = ep->xfer_len_db;
 80013c6:	0033      	movs	r3, r6
 80013c8:	e7d9      	b.n	800137e <HAL_PCD_IRQHandler+0x726>
        PCD_SET_EP_DBUF1_CNT(hpcd->Instance, ep->num, ep->is_in, len);
 80013ca:	2b3e      	cmp	r3, #62	@ 0x3e
 80013cc:	d806      	bhi.n	80013dc <HAL_PCD_IRQHandler+0x784>
 80013ce:	2001      	movs	r0, #1
 80013d0:	085a      	lsrs	r2, r3, #1
 80013d2:	4018      	ands	r0, r3
 80013d4:	1812      	adds	r2, r2, r0
 80013d6:	0692      	lsls	r2, r2, #26
 80013d8:	6868      	ldr	r0, [r5, #4]
 80013da:	e7e3      	b.n	80013a4 <HAL_PCD_IRQHandler+0x74c>
 80013dc:	201f      	movs	r0, #31
 80013de:	4018      	ands	r0, r3
 80013e0:	4246      	negs	r6, r0
 80013e2:	4170      	adcs	r0, r6
 80013e4:	095a      	lsrs	r2, r3, #5
 80013e6:	1a12      	subs	r2, r2, r0
 80013e8:	6868      	ldr	r0, [r5, #4]
 80013ea:	0692      	lsls	r2, r2, #26
 80013ec:	4302      	orrs	r2, r0
 80013ee:	2080      	movs	r0, #128	@ 0x80
 80013f0:	0600      	lsls	r0, r0, #24
 80013f2:	e7d7      	b.n	80013a4 <HAL_PCD_IRQHandler+0x74c>
 80013f4:	2a01      	cmp	r2, #1
 80013f6:	d1d7      	bne.n	80013a8 <HAL_PCD_IRQHandler+0x750>
 80013f8:	4a46      	ldr	r2, [pc, #280]	@ (8001514 <HAL_PCD_IRQHandler+0x8bc>)
 80013fa:	00ed      	lsls	r5, r5, #3
 80013fc:	18ad      	adds	r5, r5, r2
 80013fe:	686a      	ldr	r2, [r5, #4]
 8001400:	b292      	uxth	r2, r2
 8001402:	606a      	str	r2, [r5, #4]
 8001404:	6868      	ldr	r0, [r5, #4]
 8001406:	041a      	lsls	r2, r3, #16
 8001408:	e7cc      	b.n	80013a4 <HAL_PCD_IRQHandler+0x74c>
  if ((wIstr & USB_ISTR_RESET) == USB_ISTR_RESET)
 800140a:	0543      	lsls	r3, r0, #21
 800140c:	d50c      	bpl.n	8001428 <HAL_PCD_IRQHandler+0x7d0>
    __HAL_PCD_CLEAR_FLAG(hpcd, USB_ISTR_RESET);
 800140e:	6822      	ldr	r2, [r4, #0]
 8001410:	4941      	ldr	r1, [pc, #260]	@ (8001518 <HAL_PCD_IRQHandler+0x8c0>)
 8001412:	6c53      	ldr	r3, [r2, #68]	@ 0x44
    HAL_PCD_ResetCallback(hpcd);
 8001414:	0020      	movs	r0, r4
    __HAL_PCD_CLEAR_FLAG(hpcd, USB_ISTR_RESET);
 8001416:	400b      	ands	r3, r1
 8001418:	6453      	str	r3, [r2, #68]	@ 0x44
    HAL_PCD_ResetCallback(hpcd);
 800141a:	f001 ffd6 	bl	80033ca <HAL_PCD_ResetCallback>
    (void)HAL_PCD_SetAddress(hpcd, 0U);
 800141e:	0029      	movs	r1, r5
 8001420:	0020      	movs	r0, r4
 8001422:	f7ff fc08 	bl	8000c36 <HAL_PCD_SetAddress>
    return;
 8001426:	e48d      	b.n	8000d44 <HAL_PCD_IRQHandler+0xec>
  if ((wIstr & USB_ISTR_PMAOVR) == USB_ISTR_PMAOVR)
 8001428:	0443      	lsls	r3, r0, #17
 800142a:	d505      	bpl.n	8001438 <HAL_PCD_IRQHandler+0x7e0>
    __HAL_PCD_CLEAR_FLAG(hpcd, USB_ISTR_PMAOVR);
 800142c:	6822      	ldr	r2, [r4, #0]
 800142e:	493b      	ldr	r1, [pc, #236]	@ (800151c <HAL_PCD_IRQHandler+0x8c4>)
 8001430:	6c53      	ldr	r3, [r2, #68]	@ 0x44
    __HAL_PCD_CLEAR_FLAG(hpcd, USB_ISTR_ESOF);
 8001432:	400b      	ands	r3, r1
 8001434:	6453      	str	r3, [r2, #68]	@ 0x44
    return;
 8001436:	e485      	b.n	8000d44 <HAL_PCD_IRQHandler+0xec>
  if ((wIstr & USB_ISTR_ERR) == USB_ISTR_ERR)
 8001438:	2380      	movs	r3, #128	@ 0x80
 800143a:	0001      	movs	r1, r0
 800143c:	019b      	lsls	r3, r3, #6
 800143e:	4019      	ands	r1, r3
 8001440:	4218      	tst	r0, r3
 8001442:	d003      	beq.n	800144c <HAL_PCD_IRQHandler+0x7f4>
    __HAL_PCD_CLEAR_FLAG(hpcd, USB_ISTR_ERR);
 8001444:	6822      	ldr	r2, [r4, #0]
 8001446:	4936      	ldr	r1, [pc, #216]	@ (8001520 <HAL_PCD_IRQHandler+0x8c8>)
 8001448:	6c53      	ldr	r3, [r2, #68]	@ 0x44
 800144a:	e7f2      	b.n	8001432 <HAL_PCD_IRQHandler+0x7da>
  if ((wIstr & USB_ISTR_WKUP) == USB_ISTR_WKUP)
 800144c:	04c3      	lsls	r3, r0, #19
 800144e:	d517      	bpl.n	8001480 <HAL_PCD_IRQHandler+0x828>
    hpcd->Instance->CNTR &= ~(USB_CNTR_SUSPRDY);
 8001450:	6823      	ldr	r3, [r4, #0]
 8001452:	6c18      	ldr	r0, [r3, #64]	@ 0x40
 8001454:	4390      	bics	r0, r2
 8001456:	6418      	str	r0, [r3, #64]	@ 0x40
    hpcd->Instance->CNTR &= ~(USB_CNTR_SUSPEN);
 8001458:	2008      	movs	r0, #8
 800145a:	6c1a      	ldr	r2, [r3, #64]	@ 0x40
 800145c:	4382      	bics	r2, r0
 800145e:	641a      	str	r2, [r3, #64]	@ 0x40
    if (hpcd->LPM_State == LPM_L1)
 8001460:	23b3      	movs	r3, #179	@ 0xb3
 8001462:	009b      	lsls	r3, r3, #2
 8001464:	5ce2      	ldrb	r2, [r4, r3]
 8001466:	2a01      	cmp	r2, #1
 8001468:	d103      	bne.n	8001472 <HAL_PCD_IRQHandler+0x81a>
      HAL_PCDEx_LPM_Callback(hpcd, PCD_LPM_L0_ACTIVE);
 800146a:	0020      	movs	r0, r4
      hpcd->LPM_State = LPM_L0;
 800146c:	54e1      	strb	r1, [r4, r3]
      HAL_PCDEx_LPM_Callback(hpcd, PCD_LPM_L0_ACTIVE);
 800146e:	f002 f877 	bl	8003560 <HAL_PCDEx_LPM_Callback>
    HAL_PCD_ResumeCallback(hpcd);
 8001472:	0020      	movs	r0, r4
 8001474:	f001 ffcc 	bl	8003410 <HAL_PCD_ResumeCallback>
    __HAL_PCD_CLEAR_FLAG(hpcd, USB_ISTR_WKUP);
 8001478:	6822      	ldr	r2, [r4, #0]
 800147a:	492a      	ldr	r1, [pc, #168]	@ (8001524 <HAL_PCD_IRQHandler+0x8cc>)
 800147c:	6c53      	ldr	r3, [r2, #68]	@ 0x44
 800147e:	e7d8      	b.n	8001432 <HAL_PCD_IRQHandler+0x7da>
  if ((wIstr & USB_ISTR_SUSP) == USB_ISTR_SUSP)
 8001480:	0503      	lsls	r3, r0, #20
 8001482:	d50f      	bpl.n	80014a4 <HAL_PCD_IRQHandler+0x84c>
    hpcd->Instance->CNTR |= USB_CNTR_SUSPEN;
 8001484:	2108      	movs	r1, #8
 8001486:	6823      	ldr	r3, [r4, #0]
 8001488:	6c18      	ldr	r0, [r3, #64]	@ 0x40
 800148a:	4301      	orrs	r1, r0
 800148c:	6419      	str	r1, [r3, #64]	@ 0x40
    __HAL_PCD_CLEAR_FLAG(hpcd, USB_ISTR_SUSP);
 800148e:	6c59      	ldr	r1, [r3, #68]	@ 0x44
 8001490:	4825      	ldr	r0, [pc, #148]	@ (8001528 <HAL_PCD_IRQHandler+0x8d0>)
 8001492:	4001      	ands	r1, r0
 8001494:	6459      	str	r1, [r3, #68]	@ 0x44
    hpcd->Instance->CNTR |= USB_CNTR_SUSPRDY;
 8001496:	6c19      	ldr	r1, [r3, #64]	@ 0x40
 8001498:	430a      	orrs	r2, r1
 800149a:	641a      	str	r2, [r3, #64]	@ 0x40
      HAL_PCD_SuspendCallback(hpcd);
 800149c:	0020      	movs	r0, r4
 800149e:	f001 ffa5 	bl	80033ec <HAL_PCD_SuspendCallback>
 80014a2:	e44f      	b.n	8000d44 <HAL_PCD_IRQHandler+0xec>
  if ((wIstr & USB_ISTR_L1REQ) == USB_ISTR_L1REQ)
 80014a4:	0603      	lsls	r3, r0, #24
 80014a6:	d51d      	bpl.n	80014e4 <HAL_PCD_IRQHandler+0x88c>
    __HAL_PCD_CLEAR_FLAG(hpcd, USB_ISTR_L1REQ);
 80014a8:	6823      	ldr	r3, [r4, #0]
 80014aa:	4820      	ldr	r0, [pc, #128]	@ (800152c <HAL_PCD_IRQHandler+0x8d4>)
 80014ac:	6c59      	ldr	r1, [r3, #68]	@ 0x44
 80014ae:	4001      	ands	r1, r0
    if (hpcd->LPM_State == LPM_L0)
 80014b0:	20b3      	movs	r0, #179	@ 0xb3
    __HAL_PCD_CLEAR_FLAG(hpcd, USB_ISTR_L1REQ);
 80014b2:	6459      	str	r1, [r3, #68]	@ 0x44
    if (hpcd->LPM_State == LPM_L0)
 80014b4:	0080      	lsls	r0, r0, #2
 80014b6:	5c21      	ldrb	r1, [r4, r0]
 80014b8:	2900      	cmp	r1, #0
 80014ba:	d1ef      	bne.n	800149c <HAL_PCD_IRQHandler+0x844>
      hpcd->Instance->CNTR |= USB_CNTR_SUSPRDY;
 80014bc:	6c19      	ldr	r1, [r3, #64]	@ 0x40
 80014be:	430a      	orrs	r2, r1
 80014c0:	641a      	str	r2, [r3, #64]	@ 0x40
      hpcd->Instance->CNTR |= USB_CNTR_SUSPEN;
 80014c2:	2208      	movs	r2, #8
 80014c4:	6c19      	ldr	r1, [r3, #64]	@ 0x40
 80014c6:	430a      	orrs	r2, r1
      hpcd->LPM_State = LPM_L1;
 80014c8:	2101      	movs	r1, #1
      hpcd->Instance->CNTR |= USB_CNTR_SUSPEN;
 80014ca:	641a      	str	r2, [r3, #64]	@ 0x40
      hpcd->BESL = ((uint32_t)hpcd->Instance->LPMCSR & USB_LPMCSR_BESL) >> 2;
 80014cc:	223c      	movs	r2, #60	@ 0x3c
      hpcd->LPM_State = LPM_L1;
 80014ce:	5421      	strb	r1, [r4, r0]
      hpcd->BESL = ((uint32_t)hpcd->Instance->LPMCSR & USB_LPMCSR_BESL) >> 2;
 80014d0:	6d5b      	ldr	r3, [r3, #84]	@ 0x54
      HAL_PCDEx_LPM_Callback(hpcd, PCD_LPM_L1_ACTIVE);
 80014d2:	0020      	movs	r0, r4
      hpcd->BESL = ((uint32_t)hpcd->Instance->LPMCSR & USB_LPMCSR_BESL) >> 2;
 80014d4:	089b      	lsrs	r3, r3, #2
 80014d6:	4013      	ands	r3, r2
 80014d8:	22b4      	movs	r2, #180	@ 0xb4
 80014da:	0092      	lsls	r2, r2, #2
 80014dc:	50a3      	str	r3, [r4, r2]
      HAL_PCDEx_LPM_Callback(hpcd, PCD_LPM_L1_ACTIVE);
 80014de:	f002 f83f 	bl	8003560 <HAL_PCDEx_LPM_Callback>
 80014e2:	e42f      	b.n	8000d44 <HAL_PCD_IRQHandler+0xec>
  if ((wIstr & USB_ISTR_SOF) == USB_ISTR_SOF)
 80014e4:	0583      	lsls	r3, r0, #22
 80014e6:	d509      	bpl.n	80014fc <HAL_PCD_IRQHandler+0x8a4>
    __HAL_PCD_CLEAR_FLAG(hpcd, USB_ISTR_SOF);
 80014e8:	6822      	ldr	r2, [r4, #0]
 80014ea:	4911      	ldr	r1, [pc, #68]	@ (8001530 <HAL_PCD_IRQHandler+0x8d8>)
 80014ec:	6c53      	ldr	r3, [r2, #68]	@ 0x44
    HAL_PCD_SOFCallback(hpcd);
 80014ee:	0020      	movs	r0, r4
    __HAL_PCD_CLEAR_FLAG(hpcd, USB_ISTR_SOF);
 80014f0:	400b      	ands	r3, r1
 80014f2:	6453      	str	r3, [r2, #68]	@ 0x44
    HAL_PCD_SOFCallback(hpcd);
 80014f4:	f001 ff62 	bl	80033bc <HAL_PCD_SOFCallback>
    return;
 80014f8:	f7ff fc24 	bl	8000d44 <HAL_PCD_IRQHandler+0xec>
  if ((wIstr & USB_ISTR_ESOF) == USB_ISTR_ESOF)
 80014fc:	05c0      	lsls	r0, r0, #23
 80014fe:	d401      	bmi.n	8001504 <HAL_PCD_IRQHandler+0x8ac>
 8001500:	f7ff fc20 	bl	8000d44 <HAL_PCD_IRQHandler+0xec>
    __HAL_PCD_CLEAR_FLAG(hpcd, USB_ISTR_ESOF);
 8001504:	6822      	ldr	r2, [r4, #0]
 8001506:	490b      	ldr	r1, [pc, #44]	@ (8001534 <HAL_PCD_IRQHandler+0x8dc>)
 8001508:	6c53      	ldr	r3, [r2, #68]	@ 0x44
 800150a:	e792      	b.n	8001432 <HAL_PCD_IRQHandler+0x7da>
 800150c:	07ff8f8f 	.word	0x07ff8f8f
 8001510:	0000c080 	.word	0x0000c080
 8001514:	40009800 	.word	0x40009800
 8001518:	0000fbff 	.word	0x0000fbff
 800151c:	0000bfff 	.word	0x0000bfff
 8001520:	0000dfff 	.word	0x0000dfff
 8001524:	0000efff 	.word	0x0000efff
 8001528:	0000f7ff 	.word	0x0000f7ff
 800152c:	0000ff7f 	.word	0x0000ff7f
 8001530:	0000fdff 	.word	0x0000fdff
 8001534:	0000feff 	.word	0x0000feff

08001538 <HAL_PCD_EP_Open>:
{
 8001538:	b570      	push	{r4, r5, r6, lr}
 800153a:	0004      	movs	r4, r0
 800153c:	2007      	movs	r0, #7
 800153e:	000d      	movs	r5, r1
 8001540:	4008      	ands	r0, r1
 8001542:	2128      	movs	r1, #40	@ 0x28
 8001544:	4341      	muls	r1, r0
  if ((ep_addr & 0x80U) == 0x80U)
 8001546:	b26d      	sxtb	r5, r5
 8001548:	1866      	adds	r6, r4, r1
 800154a:	2d00      	cmp	r5, #0
 800154c:	da1a      	bge.n	8001584 <HAL_PCD_EP_Open+0x4c>
    ep->is_in = 1U;
 800154e:	2501      	movs	r5, #1
    ep = &hpcd->IN_ep[ep_addr & EP_ADDR_MSK];
 8001550:	3114      	adds	r1, #20
 8001552:	1861      	adds	r1, r4, r1
    ep->is_in = 1U;
 8001554:	7575      	strb	r5, [r6, #21]
  ep->maxpacket = (uint32_t)ep_mps & 0x7FFU;
 8001556:	0552      	lsls	r2, r2, #21
 8001558:	0d52      	lsrs	r2, r2, #21
  ep->num = ep_addr & EP_ADDR_MSK;
 800155a:	7008      	strb	r0, [r1, #0]
  ep->maxpacket = (uint32_t)ep_mps & 0x7FFU;
 800155c:	610a      	str	r2, [r1, #16]
  ep->type = ep_type;
 800155e:	70cb      	strb	r3, [r1, #3]
  if (ep_type == EP_TYPE_BULK)
 8001560:	2b02      	cmp	r3, #2
 8001562:	d101      	bne.n	8001568 <HAL_PCD_EP_Open+0x30>
    ep->data_pid_start = 0U;
 8001564:	2300      	movs	r3, #0
 8001566:	710b      	strb	r3, [r1, #4]
  __HAL_LOCK(hpcd);
 8001568:	25a5      	movs	r5, #165	@ 0xa5
 800156a:	00ad      	lsls	r5, r5, #2
 800156c:	5d63      	ldrb	r3, [r4, r5]
 800156e:	2002      	movs	r0, #2
 8001570:	2b01      	cmp	r3, #1
 8001572:	d006      	beq.n	8001582 <HAL_PCD_EP_Open+0x4a>
 8001574:	2301      	movs	r3, #1
 8001576:	5563      	strb	r3, [r4, r5]
  (void)USB_ActivateEndpoint(hpcd->Instance, ep);
 8001578:	6820      	ldr	r0, [r4, #0]
 800157a:	f000 fddb 	bl	8002134 <USB_ActivateEndpoint>
  __HAL_UNLOCK(hpcd);
 800157e:	2000      	movs	r0, #0
 8001580:	5560      	strb	r0, [r4, r5]
}
 8001582:	bd70      	pop	{r4, r5, r6, pc}
    ep->is_in = 0U;
 8001584:	2500      	movs	r5, #0
    ep = &hpcd->OUT_ep[ep_addr & EP_ADDR_MSK];
 8001586:	3155      	adds	r1, #85	@ 0x55
    ep->is_in = 0U;
 8001588:	3656      	adds	r6, #86	@ 0x56
    ep = &hpcd->OUT_ep[ep_addr & EP_ADDR_MSK];
 800158a:	31ff      	adds	r1, #255	@ 0xff
    ep->is_in = 0U;
 800158c:	36ff      	adds	r6, #255	@ 0xff
    ep = &hpcd->OUT_ep[ep_addr & EP_ADDR_MSK];
 800158e:	1861      	adds	r1, r4, r1
    ep->is_in = 0U;
 8001590:	7035      	strb	r5, [r6, #0]
 8001592:	e7e0      	b.n	8001556 <HAL_PCD_EP_Open+0x1e>

08001594 <HAL_PCD_EP_Close>:
  if ((ep_addr & 0x80U) == 0x80U)
 8001594:	2207      	movs	r2, #7
{
 8001596:	000b      	movs	r3, r1
 8001598:	400a      	ands	r2, r1
 800159a:	2128      	movs	r1, #40	@ 0x28
 800159c:	4351      	muls	r1, r2
  if ((ep_addr & 0x80U) == 0x80U)
 800159e:	b25b      	sxtb	r3, r3
{
 80015a0:	b570      	push	{r4, r5, r6, lr}
 80015a2:	0004      	movs	r4, r0
 80015a4:	1840      	adds	r0, r0, r1
  if ((ep_addr & 0x80U) == 0x80U)
 80015a6:	2b00      	cmp	r3, #0
 80015a8:	da12      	bge.n	80015d0 <HAL_PCD_EP_Close+0x3c>
    ep->is_in = 1U;
 80015aa:	2301      	movs	r3, #1
    ep = &hpcd->IN_ep[ep_addr & EP_ADDR_MSK];
 80015ac:	3114      	adds	r1, #20
 80015ae:	1861      	adds	r1, r4, r1
    ep->is_in = 1U;
 80015b0:	7543      	strb	r3, [r0, #21]
  __HAL_LOCK(hpcd);
 80015b2:	25a5      	movs	r5, #165	@ 0xa5
  ep->num = ep_addr & EP_ADDR_MSK;
 80015b4:	700a      	strb	r2, [r1, #0]
  __HAL_LOCK(hpcd);
 80015b6:	00ad      	lsls	r5, r5, #2
 80015b8:	5d63      	ldrb	r3, [r4, r5]
 80015ba:	2002      	movs	r0, #2
 80015bc:	2b01      	cmp	r3, #1
 80015be:	d006      	beq.n	80015ce <HAL_PCD_EP_Close+0x3a>
 80015c0:	2301      	movs	r3, #1
 80015c2:	5563      	strb	r3, [r4, r5]
  (void)USB_DeactivateEndpoint(hpcd->Instance, ep);
 80015c4:	6820      	ldr	r0, [r4, #0]
 80015c6:	f000 fefd 	bl	80023c4 <USB_DeactivateEndpoint>
  __HAL_UNLOCK(hpcd);
 80015ca:	2000      	movs	r0, #0
 80015cc:	5560      	strb	r0, [r4, r5]
}
 80015ce:	bd70      	pop	{r4, r5, r6, pc}
    ep->is_in = 0U;
 80015d0:	2300      	movs	r3, #0
    ep = &hpcd->OUT_ep[ep_addr & EP_ADDR_MSK];
 80015d2:	3155      	adds	r1, #85	@ 0x55
    ep->is_in = 0U;
 80015d4:	3056      	adds	r0, #86	@ 0x56
    ep = &hpcd->OUT_ep[ep_addr & EP_ADDR_MSK];
 80015d6:	31ff      	adds	r1, #255	@ 0xff
    ep->is_in = 0U;
 80015d8:	30ff      	adds	r0, #255	@ 0xff
    ep = &hpcd->OUT_ep[ep_addr & EP_ADDR_MSK];
 80015da:	1861      	adds	r1, r4, r1
    ep->is_in = 0U;
 80015dc:	7003      	strb	r3, [r0, #0]
 80015de:	e7e8      	b.n	80015b2 <HAL_PCD_EP_Close+0x1e>

080015e0 <HAL_PCD_EP_Receive>:
{
 80015e0:	b5f8      	push	{r3, r4, r5, r6, r7, lr}
 80015e2:	2407      	movs	r4, #7
}
 80015e4:	4021      	ands	r1, r4
  ep->xfer_buff = pBuf;
 80015e6:	3421      	adds	r4, #33	@ 0x21
 80015e8:	434c      	muls	r4, r1
 80015ea:	1906      	adds	r6, r0, r4
 80015ec:	0037      	movs	r7, r6
 80015ee:	37fc      	adds	r7, #252	@ 0xfc
  ep->xfer_len = len;
 80015f0:	673b      	str	r3, [r7, #112]	@ 0x70
  ep->is_in = 0U;
 80015f2:	0033      	movs	r3, r6
  ep->xfer_count = 0U;
 80015f4:	2500      	movs	r5, #0
  ep->is_in = 0U;
 80015f6:	3356      	adds	r3, #86	@ 0x56
  ep->num = ep_addr & EP_ADDR_MSK;
 80015f8:	3655      	adds	r6, #85	@ 0x55
  ep = &hpcd->OUT_ep[ep_addr & EP_ADDR_MSK];
 80015fa:	3455      	adds	r4, #85	@ 0x55
  ep->is_in = 0U;
 80015fc:	33ff      	adds	r3, #255	@ 0xff
  ep->num = ep_addr & EP_ADDR_MSK;
 80015fe:	36ff      	adds	r6, #255	@ 0xff
  ep = &hpcd->OUT_ep[ep_addr & EP_ADDR_MSK];
 8001600:	34ff      	adds	r4, #255	@ 0xff
  ep->xfer_count = 0U;
 8001602:	677d      	str	r5, [r7, #116]	@ 0x74
  ep->xfer_buff = pBuf;
 8001604:	66fa      	str	r2, [r7, #108]	@ 0x6c
  ep->is_in = 0U;
 8001606:	701d      	strb	r5, [r3, #0]
  ep->num = ep_addr & EP_ADDR_MSK;
 8001608:	7031      	strb	r1, [r6, #0]
  ep = &hpcd->OUT_ep[ep_addr & EP_ADDR_MSK];
 800160a:	1901      	adds	r1, r0, r4
  (void)USB_EPStartXfer(hpcd->Instance, ep);
 800160c:	6800      	ldr	r0, [r0, #0]
 800160e:	f000 ffdd 	bl	80025cc <USB_EPStartXfer>
}
 8001612:	0028      	movs	r0, r5
 8001614:	bdf8      	pop	{r3, r4, r5, r6, r7, pc}

08001616 <HAL_PCD_EP_Transmit>:
{
 8001616:	b570      	push	{r4, r5, r6, lr}
 8001618:	2407      	movs	r4, #7
}
 800161a:	4021      	ands	r1, r4
 800161c:	3421      	adds	r4, #33	@ 0x21
 800161e:	434c      	muls	r4, r1
  ep->xfer_buff = pBuf;
 8001620:	1906      	adds	r6, r0, r4
  ep->xfer_fill_db = 1U;
 8001622:	0035      	movs	r5, r6
  ep->xfer_buff = pBuf;
 8001624:	62b2      	str	r2, [r6, #40]	@ 0x28
  ep->xfer_fill_db = 1U;
 8001626:	2201      	movs	r2, #1
 8001628:	3538      	adds	r5, #56	@ 0x38
  ep->xfer_len = len;
 800162a:	62f3      	str	r3, [r6, #44]	@ 0x2c
  ep->xfer_fill_db = 1U;
 800162c:	702a      	strb	r2, [r5, #0]
  ep->xfer_count = 0U;
 800162e:	2500      	movs	r5, #0
  ep = &hpcd->IN_ep[ep_addr & EP_ADDR_MSK];
 8001630:	3414      	adds	r4, #20
  ep->xfer_count = 0U;
 8001632:	6335      	str	r5, [r6, #48]	@ 0x30
  ep->num = ep_addr & EP_ADDR_MSK;
 8001634:	7531      	strb	r1, [r6, #20]
  ep->xfer_len_db = len;
 8001636:	6373      	str	r3, [r6, #52]	@ 0x34
  ep->is_in = 1U;
 8001638:	7572      	strb	r2, [r6, #21]
  ep = &hpcd->IN_ep[ep_addr & EP_ADDR_MSK];
 800163a:	1901      	adds	r1, r0, r4
  (void)USB_EPStartXfer(hpcd->Instance, ep);
 800163c:	6800      	ldr	r0, [r0, #0]
 800163e:	f000 ffc5 	bl	80025cc <USB_EPStartXfer>
}
 8001642:	0028      	movs	r0, r5
 8001644:	bd70      	pop	{r4, r5, r6, pc}

08001646 <HAL_PCD_EP_SetStall>:
  if (((uint32_t)ep_addr & EP_ADDR_MSK) > hpcd->Init.dev_endpoints)
 8001646:	2207      	movs	r2, #7
{
 8001648:	b570      	push	{r4, r5, r6, lr}
  if (((uint32_t)ep_addr & EP_ADDR_MSK) > hpcd->Init.dev_endpoints)
 800164a:	7903      	ldrb	r3, [r0, #4]
{
 800164c:	0004      	movs	r4, r0
 800164e:	400a      	ands	r2, r1
    return HAL_ERROR;
 8001650:	2001      	movs	r0, #1
  if (((uint32_t)ep_addr & EP_ADDR_MSK) > hpcd->Init.dev_endpoints)
 8001652:	4293      	cmp	r3, r2
 8001654:	d319      	bcc.n	800168a <HAL_PCD_EP_SetStall+0x44>
  if ((0x80U & ep_addr) == 0x80U)
 8001656:	b248      	sxtb	r0, r1
 8001658:	2328      	movs	r3, #40	@ 0x28
 800165a:	2800      	cmp	r0, #0
 800165c:	da16      	bge.n	800168c <HAL_PCD_EP_SetStall+0x46>
    ep = &hpcd->IN_ep[ep_addr & EP_ADDR_MSK];
 800165e:	4353      	muls	r3, r2
 8001660:	0019      	movs	r1, r3
    ep->is_in = 1U;
 8001662:	2001      	movs	r0, #1
    ep = &hpcd->IN_ep[ep_addr & EP_ADDR_MSK];
 8001664:	3114      	adds	r1, #20
    ep->is_in = 1U;
 8001666:	18e3      	adds	r3, r4, r3
    ep = &hpcd->IN_ep[ep_addr & EP_ADDR_MSK];
 8001668:	1861      	adds	r1, r4, r1
    ep->is_in = 1U;
 800166a:	7558      	strb	r0, [r3, #21]
  ep->is_stall = 1U;
 800166c:	2301      	movs	r3, #1
  __HAL_LOCK(hpcd);
 800166e:	25a5      	movs	r5, #165	@ 0xa5
  ep->is_stall = 1U;
 8001670:	708b      	strb	r3, [r1, #2]
  ep->num = ep_addr & EP_ADDR_MSK;
 8001672:	700a      	strb	r2, [r1, #0]
  __HAL_LOCK(hpcd);
 8001674:	00ad      	lsls	r5, r5, #2
 8001676:	5d62      	ldrb	r2, [r4, r5]
 8001678:	2002      	movs	r0, #2
 800167a:	429a      	cmp	r2, r3
 800167c:	d005      	beq.n	800168a <HAL_PCD_EP_SetStall+0x44>
 800167e:	5563      	strb	r3, [r4, r5]
  (void)USB_EPSetStall(hpcd->Instance, ep);
 8001680:	6820      	ldr	r0, [r4, #0]
 8001682:	f000 ff0f 	bl	80024a4 <USB_EPSetStall>
  __HAL_UNLOCK(hpcd);
 8001686:	2000      	movs	r0, #0
 8001688:	5560      	strb	r0, [r4, r5]
}
 800168a:	bd70      	pop	{r4, r5, r6, pc}
    ep = &hpcd->OUT_ep[ep_addr];
 800168c:	434b      	muls	r3, r1
 800168e:	0019      	movs	r1, r3
    ep->is_in = 0U;
 8001690:	2000      	movs	r0, #0
 8001692:	18e3      	adds	r3, r4, r3
    ep = &hpcd->OUT_ep[ep_addr];
 8001694:	3155      	adds	r1, #85	@ 0x55
    ep->is_in = 0U;
 8001696:	3356      	adds	r3, #86	@ 0x56
    ep = &hpcd->OUT_ep[ep_addr];
 8001698:	31ff      	adds	r1, #255	@ 0xff
    ep->is_in = 0U;
 800169a:	33ff      	adds	r3, #255	@ 0xff
    ep = &hpcd->OUT_ep[ep_addr];
 800169c:	1861      	adds	r1, r4, r1
    ep->is_in = 0U;
 800169e:	7018      	strb	r0, [r3, #0]
 80016a0:	e7e4      	b.n	800166c <HAL_PCD_EP_SetStall+0x26>

080016a2 <HAL_PCD_EP_ClrStall>:
{
 80016a2:	000b      	movs	r3, r1
  if (((uint32_t)ep_addr & 0x0FU) > hpcd->Init.dev_endpoints)
 80016a4:	220f      	movs	r2, #15
{
 80016a6:	b570      	push	{r4, r5, r6, lr}
  if (((uint32_t)ep_addr & 0x0FU) > hpcd->Init.dev_endpoints)
 80016a8:	7901      	ldrb	r1, [r0, #4]
{
 80016aa:	0004      	movs	r4, r0
  if (((uint32_t)ep_addr & 0x0FU) > hpcd->Init.dev_endpoints)
 80016ac:	401a      	ands	r2, r3
    return HAL_ERROR;
 80016ae:	2001      	movs	r0, #1
  if (((uint32_t)ep_addr & 0x0FU) > hpcd->Init.dev_endpoints)
 80016b0:	4291      	cmp	r1, r2
 80016b2:	d31b      	bcc.n	80016ec <HAL_PCD_EP_ClrStall+0x4a>
  if ((0x80U & ep_addr) == 0x80U)
 80016b4:	2207      	movs	r2, #7
 80016b6:	2128      	movs	r1, #40	@ 0x28
 80016b8:	401a      	ands	r2, r3
 80016ba:	4351      	muls	r1, r2
 80016bc:	b25b      	sxtb	r3, r3
 80016be:	1860      	adds	r0, r4, r1
 80016c0:	2b00      	cmp	r3, #0
 80016c2:	da14      	bge.n	80016ee <HAL_PCD_EP_ClrStall+0x4c>
    ep->is_in = 1U;
 80016c4:	2301      	movs	r3, #1
    ep = &hpcd->IN_ep[ep_addr & EP_ADDR_MSK];
 80016c6:	3114      	adds	r1, #20
 80016c8:	1861      	adds	r1, r4, r1
    ep->is_in = 1U;
 80016ca:	7543      	strb	r3, [r0, #21]
  ep->is_stall = 0U;
 80016cc:	2500      	movs	r5, #0
  __HAL_LOCK(hpcd);
 80016ce:	26a5      	movs	r6, #165	@ 0xa5
  ep->is_stall = 0U;
 80016d0:	708d      	strb	r5, [r1, #2]
  ep->num = ep_addr & EP_ADDR_MSK;
 80016d2:	700a      	strb	r2, [r1, #0]
  __HAL_LOCK(hpcd);
 80016d4:	00b6      	lsls	r6, r6, #2
 80016d6:	5da3      	ldrb	r3, [r4, r6]
 80016d8:	2002      	movs	r0, #2
 80016da:	2b01      	cmp	r3, #1
 80016dc:	d006      	beq.n	80016ec <HAL_PCD_EP_ClrStall+0x4a>
 80016de:	2301      	movs	r3, #1
 80016e0:	55a3      	strb	r3, [r4, r6]
  (void)USB_EPClearStall(hpcd->Instance, ep);
 80016e2:	6820      	ldr	r0, [r4, #0]
 80016e4:	f000 fefe 	bl	80024e4 <USB_EPClearStall>
  return HAL_OK;
 80016e8:	0028      	movs	r0, r5
  __HAL_UNLOCK(hpcd);
 80016ea:	55a5      	strb	r5, [r4, r6]
}
 80016ec:	bd70      	pop	{r4, r5, r6, pc}
    ep->is_in = 0U;
 80016ee:	2300      	movs	r3, #0
    ep = &hpcd->OUT_ep[ep_addr & EP_ADDR_MSK];
 80016f0:	3155      	adds	r1, #85	@ 0x55
    ep->is_in = 0U;
 80016f2:	3056      	adds	r0, #86	@ 0x56
    ep = &hpcd->OUT_ep[ep_addr & EP_ADDR_MSK];
 80016f4:	31ff      	adds	r1, #255	@ 0xff
    ep->is_in = 0U;
 80016f6:	30ff      	adds	r0, #255	@ 0xff
    ep = &hpcd->OUT_ep[ep_addr & EP_ADDR_MSK];
 80016f8:	1861      	adds	r1, r4, r1
    ep->is_in = 0U;
 80016fa:	7003      	strb	r3, [r0, #0]
 80016fc:	e7e6      	b.n	80016cc <HAL_PCD_EP_ClrStall+0x2a>

080016fe <HAL_PCDEx_PMAConfig>:
  * @retval HAL status
  */

HAL_StatusTypeDef  HAL_PCDEx_PMAConfig(PCD_HandleTypeDef *hpcd, uint16_t ep_addr,
                                       uint16_t ep_kind, uint32_t pmaadress)
{
 80016fe:	b530      	push	{r4, r5, lr}
 8001700:	2428      	movs	r4, #40	@ 0x28
  PCD_EPTypeDef *ep;

  /* Initialize ep structure */
  if ((0x80U & ep_addr) == 0x80U)
 8001702:	060d      	lsls	r5, r1, #24
 8001704:	d50b      	bpl.n	800171e <HAL_PCDEx_PMAConfig+0x20>
  {
    ep = &hpcd->IN_ep[ep_addr & EP_ADDR_MSK];
 8001706:	2507      	movs	r5, #7
 8001708:	4029      	ands	r1, r5
 800170a:	434c      	muls	r4, r1
 800170c:	3414      	adds	r4, #20
  }
  else
  {
    ep = &hpcd->OUT_ep[ep_addr];
 800170e:	1900      	adds	r0, r0, r4
  {
    /* Single Buffer */
    ep->doublebuffer = 0U;

    /* Configure the PMA */
    ep->pmaadress = (uint16_t)pmaadress;
 8001710:	b299      	uxth	r1, r3
  if (ep_kind == PCD_SNG_BUF)
 8001712:	2a00      	cmp	r2, #0
 8001714:	d107      	bne.n	8001726 <HAL_PCDEx_PMAConfig+0x28>
    ep->doublebuffer = 0U;
 8001716:	7302      	strb	r2, [r0, #12]
    ep->pmaadress = (uint16_t)pmaadress;
 8001718:	80c1      	strh	r1, [r0, #6]
    ep->pmaaddr1 = (uint16_t)((pmaadress & 0xFFFF0000U) >> 16);
  }
#endif /* (USE_USB_DOUBLE_BUFFER == 1U) */

  return HAL_OK;
}
 800171a:	2000      	movs	r0, #0
 800171c:	bd30      	pop	{r4, r5, pc}
    ep = &hpcd->OUT_ep[ep_addr];
 800171e:	434c      	muls	r4, r1
 8001720:	3455      	adds	r4, #85	@ 0x55
 8001722:	34ff      	adds	r4, #255	@ 0xff
 8001724:	e7f3      	b.n	800170e <HAL_PCDEx_PMAConfig+0x10>
    ep->doublebuffer = 1U;
 8001726:	2201      	movs	r2, #1
    ep->pmaaddr0 = (uint16_t)(pmaadress & 0xFFFFU);
 8001728:	6083      	str	r3, [r0, #8]
    ep->doublebuffer = 1U;
 800172a:	7302      	strb	r2, [r0, #12]
    ep->pmaaddr1 = (uint16_t)((pmaadress & 0xFFFF0000U) >> 16);
 800172c:	e7f5      	b.n	800171a <HAL_PCDEx_PMAConfig+0x1c>

0800172e <HAL_PCDEx_ActivateLPM>:
  * @retval HAL status
  */
HAL_StatusTypeDef HAL_PCDEx_ActivateLPM(PCD_HandleTypeDef *hpcd)
{

  USB_DRD_TypeDef *USBx = hpcd->Instance;
 800172e:	6802      	ldr	r2, [r0, #0]
{
 8001730:	0003      	movs	r3, r0
  hpcd->lpm_active = 1U;
 8001732:	20b5      	movs	r0, #181	@ 0xb5
 8001734:	2101      	movs	r1, #1
{
 8001736:	b510      	push	{r4, lr}
  hpcd->lpm_active = 1U;
 8001738:	0080      	lsls	r0, r0, #2
  hpcd->LPM_State = LPM_L0;
 800173a:	24b3      	movs	r4, #179	@ 0xb3
  hpcd->lpm_active = 1U;
 800173c:	5019      	str	r1, [r3, r0]
  hpcd->LPM_State = LPM_L0;
 800173e:	2000      	movs	r0, #0
 8001740:	00a4      	lsls	r4, r4, #2
 8001742:	5518      	strb	r0, [r3, r4]

  USBx->LPMCSR |= USB_LPMCSR_LMPEN;
 8001744:	6d53      	ldr	r3, [r2, #84]	@ 0x54
 8001746:	4319      	orrs	r1, r3
  USBx->LPMCSR |= USB_LPMCSR_LPMACK;
 8001748:	2302      	movs	r3, #2
  USBx->LPMCSR |= USB_LPMCSR_LMPEN;
 800174a:	6551      	str	r1, [r2, #84]	@ 0x54
  USBx->LPMCSR |= USB_LPMCSR_LPMACK;
 800174c:	6d51      	ldr	r1, [r2, #84]	@ 0x54
 800174e:	430b      	orrs	r3, r1
 8001750:	6553      	str	r3, [r2, #84]	@ 0x54

  return HAL_OK;
}
 8001752:	bd10      	pop	{r4, pc}

08001754 <HAL_PWREx_EnableVddUSB>:
  *        Please refer to RM0444 Rev6 or later, section "Power control register 2 (PWR_CR2)".
  * @retval None
  */
void HAL_PWREx_EnableVddUSB(void)
{
  SET_BIT(PWR->CR2, PWR_CR2_USV);
 8001754:	2380      	movs	r3, #128	@ 0x80
 8001756:	4a03      	ldr	r2, [pc, #12]	@ (8001764 <HAL_PWREx_EnableVddUSB+0x10>)
 8001758:	00db      	lsls	r3, r3, #3
 800175a:	6851      	ldr	r1, [r2, #4]
 800175c:	430b      	orrs	r3, r1
 800175e:	6053      	str	r3, [r2, #4]
}
 8001760:	4770      	bx	lr
 8001762:	46c0      	nop			@ (mov r8, r8)
 8001764:	40007000 	.word	0x40007000

08001768 <HAL_PWREx_ControlVoltageScaling>:
  *        cleared before returning the status. If the flag is not cleared within
  *        6 microseconds, HAL_TIMEOUT status is reported.
  * @retval HAL Status
  */
HAL_StatusTypeDef HAL_PWREx_ControlVoltageScaling(uint32_t VoltageScaling)
{
 8001768:	b510      	push	{r4, lr}
  uint32_t wait_loop_index;

  assert_param(IS_PWR_VOLTAGE_SCALING_RANGE(VoltageScaling));

  /* Modify voltage scaling range */
  MODIFY_REG(PWR->CR1, PWR_CR1_VOS, VoltageScaling);
 800176a:	4c11      	ldr	r4, [pc, #68]	@ (80017b0 <HAL_PWREx_ControlVoltageScaling+0x48>)
 800176c:	4911      	ldr	r1, [pc, #68]	@ (80017b4 <HAL_PWREx_ControlVoltageScaling+0x4c>)
 800176e:	6823      	ldr	r3, [r4, #0]
{
 8001770:	0002      	movs	r2, r0
  MODIFY_REG(PWR->CR1, PWR_CR1_VOS, VoltageScaling);
 8001772:	400b      	ands	r3, r1
 8001774:	4303      	orrs	r3, r0
 8001776:	6023      	str	r3, [r4, #0]

  /* In case of Range 1 selected, we need to ensure that main regulator reaches new value */
  if (VoltageScaling == PWR_REGULATOR_VOLTAGE_SCALE1)
 8001778:	2380      	movs	r3, #128	@ 0x80
        return HAL_TIMEOUT;
      }
    }
  }

  return HAL_OK;
 800177a:	2000      	movs	r0, #0
  if (VoltageScaling == PWR_REGULATOR_VOLTAGE_SCALE1)
 800177c:	009b      	lsls	r3, r3, #2
 800177e:	429a      	cmp	r2, r3
 8001780:	d10e      	bne.n	80017a0 <HAL_PWREx_ControlVoltageScaling+0x38>
    wait_loop_index = ((PWR_VOSF_SETTING_DELAY_6_US * SystemCoreClock) / 1000000U) + 1U;
 8001782:	4b0d      	ldr	r3, [pc, #52]	@ (80017b8 <HAL_PWREx_ControlVoltageScaling+0x50>)
 8001784:	490d      	ldr	r1, [pc, #52]	@ (80017bc <HAL_PWREx_ControlVoltageScaling+0x54>)
 8001786:	6818      	ldr	r0, [r3, #0]
 8001788:	2306      	movs	r3, #6
 800178a:	4358      	muls	r0, r3
 800178c:	f7fe fce0 	bl	8000150 <__udivsi3>
    while (HAL_IS_BIT_SET(PWR->SR2, PWR_SR2_VOSF))
 8001790:	2280      	movs	r2, #128	@ 0x80
    wait_loop_index = ((PWR_VOSF_SETTING_DELAY_6_US * SystemCoreClock) / 1000000U) + 1U;
 8001792:	1c43      	adds	r3, r0, #1
    while (HAL_IS_BIT_SET(PWR->SR2, PWR_SR2_VOSF))
 8001794:	00d2      	lsls	r2, r2, #3
 8001796:	6961      	ldr	r1, [r4, #20]
 8001798:	0008      	movs	r0, r1
 800179a:	4010      	ands	r0, r2
 800179c:	4211      	tst	r1, r2
 800179e:	d100      	bne.n	80017a2 <HAL_PWREx_ControlVoltageScaling+0x3a>
}
 80017a0:	bd10      	pop	{r4, pc}
      if (wait_loop_index != 0U)
 80017a2:	2b00      	cmp	r3, #0
 80017a4:	d001      	beq.n	80017aa <HAL_PWREx_ControlVoltageScaling+0x42>
        wait_loop_index--;
 80017a6:	3b01      	subs	r3, #1
 80017a8:	e7f5      	b.n	8001796 <HAL_PWREx_ControlVoltageScaling+0x2e>
        return HAL_TIMEOUT;
 80017aa:	2003      	movs	r0, #3
 80017ac:	e7f8      	b.n	80017a0 <HAL_PWREx_ControlVoltageScaling+0x38>
 80017ae:	46c0      	nop			@ (mov r8, r8)
 80017b0:	40007000 	.word	0x40007000
 80017b4:	fffff9ff 	.word	0xfffff9ff
 80017b8:	20000000 	.word	0x20000000
 80017bc:	000f4240 	.word	0x000f4240

080017c0 <HAL_RCC_OscConfig>:
  *         supported by this function. User should request a transition to LSE Off
  *         first and then to LSE On or LSE Bypass.
  * @retval HAL status
  */
HAL_StatusTypeDef HAL_RCC_OscConfig(const RCC_OscInitTypeDef  *RCC_OscInitStruct)
{
 80017c0:	b5f0      	push	{r4, r5, r6, r7, lr}
 80017c2:	0004      	movs	r4, r0
 80017c4:	b085      	sub	sp, #20
  uint32_t tickstart;
  uint32_t temp_sysclksrc;
  uint32_t temp_pllckcfg;

  /* Check Null pointer */
  if (RCC_OscInitStruct == NULL)
 80017c6:	2800      	cmp	r0, #0
 80017c8:	d102      	bne.n	80017d0 <HAL_RCC_OscConfig+0x10>
  {
    return HAL_ERROR;
 80017ca:	2001      	movs	r0, #1
        }
      }
    }
  }
  return HAL_OK;
}
 80017cc:	b005      	add	sp, #20
 80017ce:	bdf0      	pop	{r4, r5, r6, r7, pc}
  if (((RCC_OscInitStruct->OscillatorType) & RCC_OSCILLATORTYPE_HSE) == RCC_OSCILLATORTYPE_HSE)
 80017d0:	6803      	ldr	r3, [r0, #0]
 80017d2:	07db      	lsls	r3, r3, #31
 80017d4:	d414      	bmi.n	8001800 <HAL_RCC_OscConfig+0x40>
  if (((RCC_OscInitStruct->OscillatorType) & RCC_OSCILLATORTYPE_HSI) == RCC_OSCILLATORTYPE_HSI)
 80017d6:	6823      	ldr	r3, [r4, #0]
 80017d8:	079b      	lsls	r3, r3, #30
 80017da:	d460      	bmi.n	800189e <HAL_RCC_OscConfig+0xde>
  if (((RCC_OscInitStruct->OscillatorType) & RCC_OSCILLATORTYPE_LSI) == RCC_OSCILLATORTYPE_LSI)
 80017dc:	6823      	ldr	r3, [r4, #0]
 80017de:	071b      	lsls	r3, r3, #28
 80017e0:	d500      	bpl.n	80017e4 <HAL_RCC_OscConfig+0x24>
 80017e2:	e0c5      	b.n	8001970 <HAL_RCC_OscConfig+0x1b0>
  if (((RCC_OscInitStruct->OscillatorType) & RCC_OSCILLATORTYPE_LSE) == RCC_OSCILLATORTYPE_LSE)
 80017e4:	6823      	ldr	r3, [r4, #0]
 80017e6:	075b      	lsls	r3, r3, #29
 80017e8:	d500      	bpl.n	80017ec <HAL_RCC_OscConfig+0x2c>
 80017ea:	e0f6      	b.n	80019da <HAL_RCC_OscConfig+0x21a>
  if (((RCC_OscInitStruct->OscillatorType) & RCC_OSCILLATORTYPE_HSI48) == RCC_OSCILLATORTYPE_HSI48)
 80017ec:	6823      	ldr	r3, [r4, #0]
 80017ee:	069b      	lsls	r3, r3, #26
 80017f0:	d500      	bpl.n	80017f4 <HAL_RCC_OscConfig+0x34>
 80017f2:	e164      	b.n	8001abe <HAL_RCC_OscConfig+0x2fe>
  if (RCC_OscInitStruct->PLL.PLLState != RCC_PLL_NONE)
 80017f4:	6a23      	ldr	r3, [r4, #32]
 80017f6:	2b00      	cmp	r3, #0
 80017f8:	d000      	beq.n	80017fc <HAL_RCC_OscConfig+0x3c>
 80017fa:	e1a5      	b.n	8001b48 <HAL_RCC_OscConfig+0x388>
  return HAL_OK;
 80017fc:	2000      	movs	r0, #0
 80017fe:	e7e5      	b.n	80017cc <HAL_RCC_OscConfig+0xc>
    temp_sysclksrc = __HAL_RCC_GET_SYSCLK_SOURCE();
 8001800:	2238      	movs	r2, #56	@ 0x38
 8001802:	4dc4      	ldr	r5, [pc, #784]	@ (8001b14 <HAL_RCC_OscConfig+0x354>)
 8001804:	68ab      	ldr	r3, [r5, #8]
 8001806:	4013      	ands	r3, r2
    temp_pllckcfg = __HAL_RCC_GET_PLL_OSCSOURCE();
 8001808:	68ea      	ldr	r2, [r5, #12]
    if (((temp_sysclksrc == RCC_SYSCLKSOURCE_STATUS_PLLCLK) && (temp_pllckcfg == RCC_PLLSOURCE_HSE))
 800180a:	2b10      	cmp	r3, #16
 800180c:	d109      	bne.n	8001822 <HAL_RCC_OscConfig+0x62>
    temp_pllckcfg = __HAL_RCC_GET_PLL_OSCSOURCE();
 800180e:	43d3      	mvns	r3, r2
    if (((temp_sysclksrc == RCC_SYSCLKSOURCE_STATUS_PLLCLK) && (temp_pllckcfg == RCC_PLLSOURCE_HSE))
 8001810:	079b      	lsls	r3, r3, #30
 8001812:	d108      	bne.n	8001826 <HAL_RCC_OscConfig+0x66>
      if ((READ_BIT(RCC->CR, RCC_CR_HSERDY) != 0U) && (RCC_OscInitStruct->HSEState == RCC_HSE_OFF))
 8001814:	682b      	ldr	r3, [r5, #0]
 8001816:	039b      	lsls	r3, r3, #14
 8001818:	d5dd      	bpl.n	80017d6 <HAL_RCC_OscConfig+0x16>
 800181a:	6863      	ldr	r3, [r4, #4]
 800181c:	2b00      	cmp	r3, #0
 800181e:	d1da      	bne.n	80017d6 <HAL_RCC_OscConfig+0x16>
 8001820:	e7d3      	b.n	80017ca <HAL_RCC_OscConfig+0xa>
        || (temp_sysclksrc == RCC_SYSCLKSOURCE_STATUS_HSE))
 8001822:	2b08      	cmp	r3, #8
 8001824:	d0f6      	beq.n	8001814 <HAL_RCC_OscConfig+0x54>
      __HAL_RCC_HSE_CONFIG(RCC_OscInitStruct->HSEState);
 8001826:	2280      	movs	r2, #128	@ 0x80
 8001828:	6863      	ldr	r3, [r4, #4]
 800182a:	0252      	lsls	r2, r2, #9
 800182c:	4293      	cmp	r3, r2
 800182e:	d111      	bne.n	8001854 <HAL_RCC_OscConfig+0x94>
 8001830:	682a      	ldr	r2, [r5, #0]
 8001832:	4313      	orrs	r3, r2
 8001834:	602b      	str	r3, [r5, #0]
        tickstart = HAL_GetTick();
 8001836:	f7ff f84d 	bl	80008d4 <HAL_GetTick>
        while (READ_BIT(RCC->CR, RCC_CR_HSERDY) == 0U)
 800183a:	2780      	movs	r7, #128	@ 0x80
        tickstart = HAL_GetTick();
 800183c:	0006      	movs	r6, r0
        while (READ_BIT(RCC->CR, RCC_CR_HSERDY) == 0U)
 800183e:	02bf      	lsls	r7, r7, #10
 8001840:	682b      	ldr	r3, [r5, #0]
 8001842:	423b      	tst	r3, r7
 8001844:	d1c7      	bne.n	80017d6 <HAL_RCC_OscConfig+0x16>
          if ((HAL_GetTick() - tickstart) > HSE_TIMEOUT_VALUE)
 8001846:	f7ff f845 	bl	80008d4 <HAL_GetTick>
 800184a:	1b80      	subs	r0, r0, r6
 800184c:	2864      	cmp	r0, #100	@ 0x64
 800184e:	d9f7      	bls.n	8001840 <HAL_RCC_OscConfig+0x80>
            return HAL_TIMEOUT;
 8001850:	2003      	movs	r0, #3
 8001852:	e7bb      	b.n	80017cc <HAL_RCC_OscConfig+0xc>
      __HAL_RCC_HSE_CONFIG(RCC_OscInitStruct->HSEState);
 8001854:	21a0      	movs	r1, #160	@ 0xa0
 8001856:	02c9      	lsls	r1, r1, #11
 8001858:	428b      	cmp	r3, r1
 800185a:	d108      	bne.n	800186e <HAL_RCC_OscConfig+0xae>
 800185c:	2380      	movs	r3, #128	@ 0x80
 800185e:	6829      	ldr	r1, [r5, #0]
 8001860:	02db      	lsls	r3, r3, #11
 8001862:	430b      	orrs	r3, r1
 8001864:	602b      	str	r3, [r5, #0]
 8001866:	682b      	ldr	r3, [r5, #0]
 8001868:	431a      	orrs	r2, r3
 800186a:	602a      	str	r2, [r5, #0]
      if (RCC_OscInitStruct->HSEState != RCC_HSE_OFF)
 800186c:	e7e3      	b.n	8001836 <HAL_RCC_OscConfig+0x76>
      __HAL_RCC_HSE_CONFIG(RCC_OscInitStruct->HSEState);
 800186e:	682a      	ldr	r2, [r5, #0]
 8001870:	49a9      	ldr	r1, [pc, #676]	@ (8001b18 <HAL_RCC_OscConfig+0x358>)
 8001872:	400a      	ands	r2, r1
 8001874:	602a      	str	r2, [r5, #0]
 8001876:	682a      	ldr	r2, [r5, #0]
 8001878:	49a8      	ldr	r1, [pc, #672]	@ (8001b1c <HAL_RCC_OscConfig+0x35c>)
 800187a:	400a      	ands	r2, r1
 800187c:	602a      	str	r2, [r5, #0]
      if (RCC_OscInitStruct->HSEState != RCC_HSE_OFF)
 800187e:	2b00      	cmp	r3, #0
 8001880:	d1d9      	bne.n	8001836 <HAL_RCC_OscConfig+0x76>
        tickstart = HAL_GetTick();
 8001882:	f7ff f827 	bl	80008d4 <HAL_GetTick>
        while (READ_BIT(RCC->CR, RCC_CR_HSERDY) != 0U)
 8001886:	2780      	movs	r7, #128	@ 0x80
        tickstart = HAL_GetTick();
 8001888:	0006      	movs	r6, r0
        while (READ_BIT(RCC->CR, RCC_CR_HSERDY) != 0U)
 800188a:	02bf      	lsls	r7, r7, #10
 800188c:	682b      	ldr	r3, [r5, #0]
 800188e:	423b      	tst	r3, r7
 8001890:	d0a1      	beq.n	80017d6 <HAL_RCC_OscConfig+0x16>
          if ((HAL_GetTick() - tickstart) > HSE_TIMEOUT_VALUE)
 8001892:	f7ff f81f 	bl	80008d4 <HAL_GetTick>
 8001896:	1b80      	subs	r0, r0, r6
 8001898:	2864      	cmp	r0, #100	@ 0x64
 800189a:	d9f7      	bls.n	800188c <HAL_RCC_OscConfig+0xcc>
 800189c:	e7d8      	b.n	8001850 <HAL_RCC_OscConfig+0x90>
    temp_sysclksrc = __HAL_RCC_GET_SYSCLK_SOURCE();
 800189e:	2238      	movs	r2, #56	@ 0x38
 80018a0:	4d9c      	ldr	r5, [pc, #624]	@ (8001b14 <HAL_RCC_OscConfig+0x354>)
 80018a2:	68ab      	ldr	r3, [r5, #8]
 80018a4:	4013      	ands	r3, r2
    temp_pllckcfg = __HAL_RCC_GET_PLL_OSCSOURCE();
 80018a6:	68ea      	ldr	r2, [r5, #12]
    if (((temp_sysclksrc == RCC_SYSCLKSOURCE_STATUS_PLLCLK) && (temp_pllckcfg == RCC_PLLSOURCE_HSI))
 80018a8:	2b10      	cmp	r3, #16
 80018aa:	d128      	bne.n	80018fe <HAL_RCC_OscConfig+0x13e>
    temp_pllckcfg = __HAL_RCC_GET_PLL_OSCSOURCE();
 80018ac:	2103      	movs	r1, #3
 80018ae:	400a      	ands	r2, r1
    if (((temp_sysclksrc == RCC_SYSCLKSOURCE_STATUS_PLLCLK) && (temp_pllckcfg == RCC_PLLSOURCE_HSI))
 80018b0:	2a02      	cmp	r2, #2
 80018b2:	d126      	bne.n	8001902 <HAL_RCC_OscConfig+0x142>
      if ((READ_BIT(RCC->CR, RCC_CR_HSIRDY) != 0U) && (RCC_OscInitStruct->HSIState == RCC_HSI_OFF))
 80018b4:	682a      	ldr	r2, [r5, #0]
 80018b6:	0552      	lsls	r2, r2, #21
 80018b8:	d503      	bpl.n	80018c2 <HAL_RCC_OscConfig+0x102>
 80018ba:	68e2      	ldr	r2, [r4, #12]
 80018bc:	2a00      	cmp	r2, #0
 80018be:	d100      	bne.n	80018c2 <HAL_RCC_OscConfig+0x102>
 80018c0:	e783      	b.n	80017ca <HAL_RCC_OscConfig+0xa>
        __HAL_RCC_HSI_CALIBRATIONVALUE_ADJUST(RCC_OscInitStruct->HSICalibrationValue);
 80018c2:	6869      	ldr	r1, [r5, #4]
 80018c4:	6962      	ldr	r2, [r4, #20]
 80018c6:	4896      	ldr	r0, [pc, #600]	@ (8001b20 <HAL_RCC_OscConfig+0x360>)
 80018c8:	0212      	lsls	r2, r2, #8
 80018ca:	4001      	ands	r1, r0
 80018cc:	430a      	orrs	r2, r1
 80018ce:	606a      	str	r2, [r5, #4]
        if (temp_sysclksrc == RCC_SYSCLKSOURCE_STATUS_HSI)
 80018d0:	2b00      	cmp	r3, #0
 80018d2:	d10c      	bne.n	80018ee <HAL_RCC_OscConfig+0x12e>
          __HAL_RCC_HSI_CONFIG(RCC_OscInitStruct->HSIDiv);
 80018d4:	682b      	ldr	r3, [r5, #0]
 80018d6:	4a93      	ldr	r2, [pc, #588]	@ (8001b24 <HAL_RCC_OscConfig+0x364>)
          SystemCoreClock = (HSI_VALUE / (1UL << ((READ_BIT(RCC->CR, RCC_CR_HSIDIV)) >> RCC_CR_HSIDIV_Pos)));
 80018d8:	4993      	ldr	r1, [pc, #588]	@ (8001b28 <HAL_RCC_OscConfig+0x368>)
          __HAL_RCC_HSI_CONFIG(RCC_OscInitStruct->HSIDiv);
 80018da:	4013      	ands	r3, r2
 80018dc:	6922      	ldr	r2, [r4, #16]
 80018de:	4313      	orrs	r3, r2
 80018e0:	602b      	str	r3, [r5, #0]
          SystemCoreClock = (HSI_VALUE / (1UL << ((READ_BIT(RCC->CR, RCC_CR_HSIDIV)) >> RCC_CR_HSIDIV_Pos)));
 80018e2:	682b      	ldr	r3, [r5, #0]
 80018e4:	4a91      	ldr	r2, [pc, #580]	@ (8001b2c <HAL_RCC_OscConfig+0x36c>)
 80018e6:	049b      	lsls	r3, r3, #18
 80018e8:	0f5b      	lsrs	r3, r3, #29
 80018ea:	40da      	lsrs	r2, r3
 80018ec:	600a      	str	r2, [r1, #0]
        if (HAL_InitTick(uwTickPrio) != HAL_OK)
 80018ee:	4b90      	ldr	r3, [pc, #576]	@ (8001b30 <HAL_RCC_OscConfig+0x370>)
 80018f0:	6818      	ldr	r0, [r3, #0]
 80018f2:	f7fe ffa7 	bl	8000844 <HAL_InitTick>
 80018f6:	2800      	cmp	r0, #0
 80018f8:	d100      	bne.n	80018fc <HAL_RCC_OscConfig+0x13c>
 80018fa:	e76f      	b.n	80017dc <HAL_RCC_OscConfig+0x1c>
 80018fc:	e765      	b.n	80017ca <HAL_RCC_OscConfig+0xa>
        || (temp_sysclksrc == RCC_SYSCLKSOURCE_STATUS_HSI))
 80018fe:	2b00      	cmp	r3, #0
 8001900:	d0d8      	beq.n	80018b4 <HAL_RCC_OscConfig+0xf4>
      if (RCC_OscInitStruct->HSIState != RCC_HSI_OFF)
 8001902:	68e3      	ldr	r3, [r4, #12]
 8001904:	2b00      	cmp	r3, #0
 8001906:	d020      	beq.n	800194a <HAL_RCC_OscConfig+0x18a>
        __HAL_RCC_HSI_CONFIG(RCC_OscInitStruct->HSIDiv);
 8001908:	682b      	ldr	r3, [r5, #0]
 800190a:	4a86      	ldr	r2, [pc, #536]	@ (8001b24 <HAL_RCC_OscConfig+0x364>)
        while (READ_BIT(RCC->CR, RCC_CR_HSIRDY) == 0U)
 800190c:	2780      	movs	r7, #128	@ 0x80
        __HAL_RCC_HSI_CONFIG(RCC_OscInitStruct->HSIDiv);
 800190e:	4013      	ands	r3, r2
 8001910:	6922      	ldr	r2, [r4, #16]
        while (READ_BIT(RCC->CR, RCC_CR_HSIRDY) == 0U)
 8001912:	00ff      	lsls	r7, r7, #3
        __HAL_RCC_HSI_CONFIG(RCC_OscInitStruct->HSIDiv);
 8001914:	4313      	orrs	r3, r2
 8001916:	602b      	str	r3, [r5, #0]
        __HAL_RCC_HSI_ENABLE();
 8001918:	2380      	movs	r3, #128	@ 0x80
 800191a:	682a      	ldr	r2, [r5, #0]
 800191c:	005b      	lsls	r3, r3, #1
 800191e:	4313      	orrs	r3, r2
 8001920:	602b      	str	r3, [r5, #0]
        tickstart = HAL_GetTick();
 8001922:	f7fe ffd7 	bl	80008d4 <HAL_GetTick>
 8001926:	0006      	movs	r6, r0
        while (READ_BIT(RCC->CR, RCC_CR_HSIRDY) == 0U)
 8001928:	682b      	ldr	r3, [r5, #0]
 800192a:	423b      	tst	r3, r7
 800192c:	d007      	beq.n	800193e <HAL_RCC_OscConfig+0x17e>
        __HAL_RCC_HSI_CALIBRATIONVALUE_ADJUST(RCC_OscInitStruct->HSICalibrationValue);
 800192e:	686a      	ldr	r2, [r5, #4]
 8001930:	6963      	ldr	r3, [r4, #20]
 8001932:	497b      	ldr	r1, [pc, #492]	@ (8001b20 <HAL_RCC_OscConfig+0x360>)
 8001934:	021b      	lsls	r3, r3, #8
 8001936:	400a      	ands	r2, r1
 8001938:	4313      	orrs	r3, r2
 800193a:	606b      	str	r3, [r5, #4]
 800193c:	e74e      	b.n	80017dc <HAL_RCC_OscConfig+0x1c>
          if ((HAL_GetTick() - tickstart) > HSI_TIMEOUT_VALUE)
 800193e:	f7fe ffc9 	bl	80008d4 <HAL_GetTick>
 8001942:	1b80      	subs	r0, r0, r6
 8001944:	2802      	cmp	r0, #2
 8001946:	d9ef      	bls.n	8001928 <HAL_RCC_OscConfig+0x168>
 8001948:	e782      	b.n	8001850 <HAL_RCC_OscConfig+0x90>
        __HAL_RCC_HSI_DISABLE();
 800194a:	682b      	ldr	r3, [r5, #0]
 800194c:	4a79      	ldr	r2, [pc, #484]	@ (8001b34 <HAL_RCC_OscConfig+0x374>)
        while (READ_BIT(RCC->CR, RCC_CR_HSIRDY) != 0U)
 800194e:	2780      	movs	r7, #128	@ 0x80
        __HAL_RCC_HSI_DISABLE();
 8001950:	4013      	ands	r3, r2
 8001952:	602b      	str	r3, [r5, #0]
        tickstart = HAL_GetTick();
 8001954:	f7fe ffbe 	bl	80008d4 <HAL_GetTick>
 8001958:	0006      	movs	r6, r0
        while (READ_BIT(RCC->CR, RCC_CR_HSIRDY) != 0U)
 800195a:	00ff      	lsls	r7, r7, #3
 800195c:	682b      	ldr	r3, [r5, #0]
 800195e:	423b      	tst	r3, r7
 8001960:	d100      	bne.n	8001964 <HAL_RCC_OscConfig+0x1a4>
 8001962:	e73b      	b.n	80017dc <HAL_RCC_OscConfig+0x1c>
          if ((HAL_GetTick() - tickstart) > HSI_TIMEOUT_VALUE)
 8001964:	f7fe ffb6 	bl	80008d4 <HAL_GetTick>
 8001968:	1b80      	subs	r0, r0, r6
 800196a:	2802      	cmp	r0, #2
 800196c:	d9f6      	bls.n	800195c <HAL_RCC_OscConfig+0x19c>
 800196e:	e76f      	b.n	8001850 <HAL_RCC_OscConfig+0x90>
    if (__HAL_RCC_GET_SYSCLK_SOURCE() == RCC_SYSCLKSOURCE_STATUS_LSI)
 8001970:	2238      	movs	r2, #56	@ 0x38
 8001972:	4d68      	ldr	r5, [pc, #416]	@ (8001b14 <HAL_RCC_OscConfig+0x354>)
 8001974:	68ab      	ldr	r3, [r5, #8]
 8001976:	4013      	ands	r3, r2
 8001978:	2b18      	cmp	r3, #24
 800197a:	d108      	bne.n	800198e <HAL_RCC_OscConfig+0x1ce>
      if ((((RCC->CSR) & RCC_CSR_LSIRDY) != 0U) && (RCC_OscInitStruct->LSIState == RCC_LSI_OFF))
 800197c:	6e2b      	ldr	r3, [r5, #96]	@ 0x60
 800197e:	079b      	lsls	r3, r3, #30
 8001980:	d400      	bmi.n	8001984 <HAL_RCC_OscConfig+0x1c4>
 8001982:	e72f      	b.n	80017e4 <HAL_RCC_OscConfig+0x24>
 8001984:	69a3      	ldr	r3, [r4, #24]
 8001986:	2b00      	cmp	r3, #0
 8001988:	d000      	beq.n	800198c <HAL_RCC_OscConfig+0x1cc>
 800198a:	e72b      	b.n	80017e4 <HAL_RCC_OscConfig+0x24>
 800198c:	e71d      	b.n	80017ca <HAL_RCC_OscConfig+0xa>
      if (RCC_OscInitStruct->LSIState != RCC_LSI_OFF)
 800198e:	69a2      	ldr	r2, [r4, #24]
 8001990:	2301      	movs	r3, #1
 8001992:	2a00      	cmp	r2, #0
 8001994:	d010      	beq.n	80019b8 <HAL_RCC_OscConfig+0x1f8>
        __HAL_RCC_LSI_ENABLE();
 8001996:	6e2a      	ldr	r2, [r5, #96]	@ 0x60
        while (READ_BIT(RCC->CSR, RCC_CSR_LSIRDY) == 0U)
 8001998:	2702      	movs	r7, #2
        __HAL_RCC_LSI_ENABLE();
 800199a:	4313      	orrs	r3, r2
 800199c:	662b      	str	r3, [r5, #96]	@ 0x60
        tickstart = HAL_GetTick();
 800199e:	f7fe ff99 	bl	80008d4 <HAL_GetTick>
 80019a2:	0006      	movs	r6, r0
        while (READ_BIT(RCC->CSR, RCC_CSR_LSIRDY) == 0U)
 80019a4:	6e2b      	ldr	r3, [r5, #96]	@ 0x60
 80019a6:	423b      	tst	r3, r7
 80019a8:	d000      	beq.n	80019ac <HAL_RCC_OscConfig+0x1ec>
 80019aa:	e71b      	b.n	80017e4 <HAL_RCC_OscConfig+0x24>
          if ((HAL_GetTick() - tickstart) > LSI_TIMEOUT_VALUE)
 80019ac:	f7fe ff92 	bl	80008d4 <HAL_GetTick>
 80019b0:	1b80      	subs	r0, r0, r6
 80019b2:	2802      	cmp	r0, #2
 80019b4:	d9f6      	bls.n	80019a4 <HAL_RCC_OscConfig+0x1e4>
 80019b6:	e74b      	b.n	8001850 <HAL_RCC_OscConfig+0x90>
        __HAL_RCC_LSI_DISABLE();
 80019b8:	6e2a      	ldr	r2, [r5, #96]	@ 0x60
        while (READ_BIT(RCC->CSR, RCC_CSR_LSIRDY) != 0U)
 80019ba:	2702      	movs	r7, #2
        __HAL_RCC_LSI_DISABLE();
 80019bc:	439a      	bics	r2, r3
 80019be:	662a      	str	r2, [r5, #96]	@ 0x60
        tickstart = HAL_GetTick();
 80019c0:	f7fe ff88 	bl	80008d4 <HAL_GetTick>
 80019c4:	0006      	movs	r6, r0
        while (READ_BIT(RCC->CSR, RCC_CSR_LSIRDY) != 0U)
 80019c6:	6e2b      	ldr	r3, [r5, #96]	@ 0x60
 80019c8:	423b      	tst	r3, r7
 80019ca:	d100      	bne.n	80019ce <HAL_RCC_OscConfig+0x20e>
 80019cc:	e70a      	b.n	80017e4 <HAL_RCC_OscConfig+0x24>
          if ((HAL_GetTick() - tickstart) > LSI_TIMEOUT_VALUE)
 80019ce:	f7fe ff81 	bl	80008d4 <HAL_GetTick>
 80019d2:	1b80      	subs	r0, r0, r6
 80019d4:	2802      	cmp	r0, #2
 80019d6:	d9f6      	bls.n	80019c6 <HAL_RCC_OscConfig+0x206>
 80019d8:	e73a      	b.n	8001850 <HAL_RCC_OscConfig+0x90>
    if (__HAL_RCC_GET_SYSCLK_SOURCE() == RCC_SYSCLKSOURCE_STATUS_LSE)
 80019da:	2238      	movs	r2, #56	@ 0x38
 80019dc:	4d4d      	ldr	r5, [pc, #308]	@ (8001b14 <HAL_RCC_OscConfig+0x354>)
 80019de:	68ab      	ldr	r3, [r5, #8]
 80019e0:	4013      	ands	r3, r2
 80019e2:	2b20      	cmp	r3, #32
 80019e4:	d108      	bne.n	80019f8 <HAL_RCC_OscConfig+0x238>
      if ((((RCC->BDCR) & RCC_BDCR_LSERDY) != 0U) && (RCC_OscInitStruct->LSEState == RCC_LSE_OFF))
 80019e6:	6deb      	ldr	r3, [r5, #92]	@ 0x5c
 80019e8:	079b      	lsls	r3, r3, #30
 80019ea:	d400      	bmi.n	80019ee <HAL_RCC_OscConfig+0x22e>
 80019ec:	e6fe      	b.n	80017ec <HAL_RCC_OscConfig+0x2c>
 80019ee:	68a3      	ldr	r3, [r4, #8]
 80019f0:	2b00      	cmp	r3, #0
 80019f2:	d000      	beq.n	80019f6 <HAL_RCC_OscConfig+0x236>
 80019f4:	e6fa      	b.n	80017ec <HAL_RCC_OscConfig+0x2c>
 80019f6:	e6e8      	b.n	80017ca <HAL_RCC_OscConfig+0xa>
      if (__HAL_RCC_PWR_IS_CLK_DISABLED() != 0U)
 80019f8:	2280      	movs	r2, #128	@ 0x80
    FlagStatus       pwrclkchanged = RESET;
 80019fa:	2100      	movs	r1, #0
      if (__HAL_RCC_PWR_IS_CLK_DISABLED() != 0U)
 80019fc:	6beb      	ldr	r3, [r5, #60]	@ 0x3c
 80019fe:	0552      	lsls	r2, r2, #21
    FlagStatus       pwrclkchanged = RESET;
 8001a00:	9100      	str	r1, [sp, #0]
      if (__HAL_RCC_PWR_IS_CLK_DISABLED() != 0U)
 8001a02:	4213      	tst	r3, r2
 8001a04:	d108      	bne.n	8001a18 <HAL_RCC_OscConfig+0x258>
        __HAL_RCC_PWR_CLK_ENABLE();
 8001a06:	6beb      	ldr	r3, [r5, #60]	@ 0x3c
 8001a08:	4313      	orrs	r3, r2
 8001a0a:	63eb      	str	r3, [r5, #60]	@ 0x3c
 8001a0c:	6beb      	ldr	r3, [r5, #60]	@ 0x3c
 8001a0e:	4013      	ands	r3, r2
 8001a10:	9303      	str	r3, [sp, #12]
 8001a12:	9b03      	ldr	r3, [sp, #12]
        pwrclkchanged = SET;
 8001a14:	2301      	movs	r3, #1
 8001a16:	9300      	str	r3, [sp, #0]
      if (HAL_IS_BIT_CLR(PWR->CR1, PWR_CR1_DBP))
 8001a18:	2780      	movs	r7, #128	@ 0x80
 8001a1a:	4e47      	ldr	r6, [pc, #284]	@ (8001b38 <HAL_RCC_OscConfig+0x378>)
 8001a1c:	007f      	lsls	r7, r7, #1
 8001a1e:	6833      	ldr	r3, [r6, #0]
 8001a20:	423b      	tst	r3, r7
 8001a22:	d015      	beq.n	8001a50 <HAL_RCC_OscConfig+0x290>
      __HAL_RCC_LSE_CONFIG(RCC_OscInitStruct->LSEState);
 8001a24:	68a3      	ldr	r3, [r4, #8]
 8001a26:	2b01      	cmp	r3, #1
 8001a28:	d122      	bne.n	8001a70 <HAL_RCC_OscConfig+0x2b0>
 8001a2a:	6dea      	ldr	r2, [r5, #92]	@ 0x5c
 8001a2c:	4313      	orrs	r3, r2
 8001a2e:	65eb      	str	r3, [r5, #92]	@ 0x5c
        tickstart = HAL_GetTick();
 8001a30:	f7fe ff50 	bl	80008d4 <HAL_GetTick>
        while (READ_BIT(RCC->BDCR, RCC_BDCR_LSERDY) == 0U)
 8001a34:	2702      	movs	r7, #2
        tickstart = HAL_GetTick();
 8001a36:	0006      	movs	r6, r0
        while (READ_BIT(RCC->BDCR, RCC_BDCR_LSERDY) == 0U)
 8001a38:	6deb      	ldr	r3, [r5, #92]	@ 0x5c
 8001a3a:	423b      	tst	r3, r7
 8001a3c:	d038      	beq.n	8001ab0 <HAL_RCC_OscConfig+0x2f0>
      if (pwrclkchanged == SET)
 8001a3e:	9b00      	ldr	r3, [sp, #0]
 8001a40:	2b01      	cmp	r3, #1
 8001a42:	d000      	beq.n	8001a46 <HAL_RCC_OscConfig+0x286>
 8001a44:	e6d2      	b.n	80017ec <HAL_RCC_OscConfig+0x2c>
        __HAL_RCC_PWR_CLK_DISABLE();
 8001a46:	6beb      	ldr	r3, [r5, #60]	@ 0x3c
 8001a48:	4a3c      	ldr	r2, [pc, #240]	@ (8001b3c <HAL_RCC_OscConfig+0x37c>)
 8001a4a:	4013      	ands	r3, r2
 8001a4c:	63eb      	str	r3, [r5, #60]	@ 0x3c
 8001a4e:	e6cd      	b.n	80017ec <HAL_RCC_OscConfig+0x2c>
        SET_BIT(PWR->CR1, PWR_CR1_DBP);
 8001a50:	6833      	ldr	r3, [r6, #0]
 8001a52:	433b      	orrs	r3, r7
 8001a54:	6033      	str	r3, [r6, #0]
        tickstart = HAL_GetTick();
 8001a56:	f7fe ff3d 	bl	80008d4 <HAL_GetTick>
 8001a5a:	9001      	str	r0, [sp, #4]
        while (HAL_IS_BIT_CLR(PWR->CR1, PWR_CR1_DBP))
 8001a5c:	6833      	ldr	r3, [r6, #0]
 8001a5e:	423b      	tst	r3, r7
 8001a60:	d1e0      	bne.n	8001a24 <HAL_RCC_OscConfig+0x264>
          if ((HAL_GetTick() - tickstart) > RCC_DBP_TIMEOUT_VALUE)
 8001a62:	f7fe ff37 	bl	80008d4 <HAL_GetTick>
 8001a66:	9b01      	ldr	r3, [sp, #4]
 8001a68:	1ac0      	subs	r0, r0, r3
 8001a6a:	2802      	cmp	r0, #2
 8001a6c:	d9f6      	bls.n	8001a5c <HAL_RCC_OscConfig+0x29c>
 8001a6e:	e6ef      	b.n	8001850 <HAL_RCC_OscConfig+0x90>
      __HAL_RCC_LSE_CONFIG(RCC_OscInitStruct->LSEState);
 8001a70:	6dea      	ldr	r2, [r5, #92]	@ 0x5c
 8001a72:	2b05      	cmp	r3, #5
 8001a74:	d105      	bne.n	8001a82 <HAL_RCC_OscConfig+0x2c2>
 8001a76:	3b01      	subs	r3, #1
 8001a78:	4313      	orrs	r3, r2
 8001a7a:	65eb      	str	r3, [r5, #92]	@ 0x5c
 8001a7c:	6dea      	ldr	r2, [r5, #92]	@ 0x5c
 8001a7e:	2301      	movs	r3, #1
 8001a80:	e7d4      	b.n	8001a2c <HAL_RCC_OscConfig+0x26c>
 8001a82:	2101      	movs	r1, #1
 8001a84:	438a      	bics	r2, r1
 8001a86:	65ea      	str	r2, [r5, #92]	@ 0x5c
 8001a88:	6dea      	ldr	r2, [r5, #92]	@ 0x5c
 8001a8a:	3103      	adds	r1, #3
 8001a8c:	438a      	bics	r2, r1
 8001a8e:	65ea      	str	r2, [r5, #92]	@ 0x5c
      if (RCC_OscInitStruct->LSEState != RCC_LSE_OFF)
 8001a90:	2b00      	cmp	r3, #0
 8001a92:	d1cd      	bne.n	8001a30 <HAL_RCC_OscConfig+0x270>
        tickstart = HAL_GetTick();
 8001a94:	f7fe ff1e 	bl	80008d4 <HAL_GetTick>
        while (READ_BIT(RCC->BDCR, RCC_BDCR_LSERDY) != 0U)
 8001a98:	2702      	movs	r7, #2
        tickstart = HAL_GetTick();
 8001a9a:	0006      	movs	r6, r0
        while (READ_BIT(RCC->BDCR, RCC_BDCR_LSERDY) != 0U)
 8001a9c:	6deb      	ldr	r3, [r5, #92]	@ 0x5c
 8001a9e:	423b      	tst	r3, r7
 8001aa0:	d0cd      	beq.n	8001a3e <HAL_RCC_OscConfig+0x27e>
          if ((HAL_GetTick() - tickstart) > RCC_LSE_TIMEOUT_VALUE)
 8001aa2:	f7fe ff17 	bl	80008d4 <HAL_GetTick>
 8001aa6:	4b26      	ldr	r3, [pc, #152]	@ (8001b40 <HAL_RCC_OscConfig+0x380>)
 8001aa8:	1b80      	subs	r0, r0, r6
 8001aaa:	4298      	cmp	r0, r3
 8001aac:	d9f6      	bls.n	8001a9c <HAL_RCC_OscConfig+0x2dc>
 8001aae:	e6cf      	b.n	8001850 <HAL_RCC_OscConfig+0x90>
          if ((HAL_GetTick() - tickstart) > RCC_LSE_TIMEOUT_VALUE)
 8001ab0:	f7fe ff10 	bl	80008d4 <HAL_GetTick>
 8001ab4:	4b22      	ldr	r3, [pc, #136]	@ (8001b40 <HAL_RCC_OscConfig+0x380>)
 8001ab6:	1b80      	subs	r0, r0, r6
 8001ab8:	4298      	cmp	r0, r3
 8001aba:	d9bd      	bls.n	8001a38 <HAL_RCC_OscConfig+0x278>
 8001abc:	e6c8      	b.n	8001850 <HAL_RCC_OscConfig+0x90>
    if (RCC_OscInitStruct->HSI48State != RCC_HSI48_OFF)
 8001abe:	69e3      	ldr	r3, [r4, #28]
 8001ac0:	4d14      	ldr	r5, [pc, #80]	@ (8001b14 <HAL_RCC_OscConfig+0x354>)
 8001ac2:	2b00      	cmp	r3, #0
 8001ac4:	d013      	beq.n	8001aee <HAL_RCC_OscConfig+0x32e>
      __HAL_RCC_HSI48_ENABLE();
 8001ac6:	2380      	movs	r3, #128	@ 0x80
 8001ac8:	682a      	ldr	r2, [r5, #0]
 8001aca:	03db      	lsls	r3, r3, #15
 8001acc:	4313      	orrs	r3, r2
 8001ace:	602b      	str	r3, [r5, #0]
      tickstart = HAL_GetTick();
 8001ad0:	f7fe ff00 	bl	80008d4 <HAL_GetTick>
      while (READ_BIT(RCC->CR, RCC_CR_HSI48RDY) == 0U)
 8001ad4:	2780      	movs	r7, #128	@ 0x80
      tickstart = HAL_GetTick();
 8001ad6:	0006      	movs	r6, r0
      while (READ_BIT(RCC->CR, RCC_CR_HSI48RDY) == 0U)
 8001ad8:	043f      	lsls	r7, r7, #16
 8001ada:	682b      	ldr	r3, [r5, #0]
 8001adc:	423b      	tst	r3, r7
 8001ade:	d000      	beq.n	8001ae2 <HAL_RCC_OscConfig+0x322>
 8001ae0:	e688      	b.n	80017f4 <HAL_RCC_OscConfig+0x34>
        if ((HAL_GetTick() - tickstart) > HSI48_TIMEOUT_VALUE)
 8001ae2:	f7fe fef7 	bl	80008d4 <HAL_GetTick>
 8001ae6:	1b80      	subs	r0, r0, r6
 8001ae8:	2802      	cmp	r0, #2
 8001aea:	d9f6      	bls.n	8001ada <HAL_RCC_OscConfig+0x31a>
 8001aec:	e6b0      	b.n	8001850 <HAL_RCC_OscConfig+0x90>
      __HAL_RCC_HSI48_DISABLE();
 8001aee:	682b      	ldr	r3, [r5, #0]
 8001af0:	4a14      	ldr	r2, [pc, #80]	@ (8001b44 <HAL_RCC_OscConfig+0x384>)
      while (READ_BIT(RCC->CR, RCC_CR_HSI48RDY) != 0U)
 8001af2:	2780      	movs	r7, #128	@ 0x80
      __HAL_RCC_HSI48_DISABLE();
 8001af4:	4013      	ands	r3, r2
 8001af6:	602b      	str	r3, [r5, #0]
      tickstart = HAL_GetTick();
 8001af8:	f7fe feec 	bl	80008d4 <HAL_GetTick>
 8001afc:	0006      	movs	r6, r0
      while (READ_BIT(RCC->CR, RCC_CR_HSI48RDY) != 0U)
 8001afe:	043f      	lsls	r7, r7, #16
 8001b00:	682b      	ldr	r3, [r5, #0]
 8001b02:	423b      	tst	r3, r7
 8001b04:	d100      	bne.n	8001b08 <HAL_RCC_OscConfig+0x348>
 8001b06:	e675      	b.n	80017f4 <HAL_RCC_OscConfig+0x34>
        if ((HAL_GetTick() - tickstart) > HSI48_TIMEOUT_VALUE)
 8001b08:	f7fe fee4 	bl	80008d4 <HAL_GetTick>
 8001b0c:	1b80      	subs	r0, r0, r6
 8001b0e:	2802      	cmp	r0, #2
 8001b10:	d9f6      	bls.n	8001b00 <HAL_RCC_OscConfig+0x340>
 8001b12:	e69d      	b.n	8001850 <HAL_RCC_OscConfig+0x90>
 8001b14:	40021000 	.word	0x40021000
 8001b18:	fffeffff 	.word	0xfffeffff
 8001b1c:	fffbffff 	.word	0xfffbffff
 8001b20:	ffff80ff 	.word	0xffff80ff
 8001b24:	ffffc7ff 	.word	0xffffc7ff
 8001b28:	20000000 	.word	0x20000000
 8001b2c:	00f42400 	.word	0x00f42400
 8001b30:	200000ac 	.word	0x200000ac
 8001b34:	fffffeff 	.word	0xfffffeff
 8001b38:	40007000 	.word	0x40007000
 8001b3c:	efffffff 	.word	0xefffffff
 8001b40:	00001388 	.word	0x00001388
 8001b44:	ffbfffff 	.word	0xffbfffff
    if (__HAL_RCC_GET_SYSCLK_SOURCE() != RCC_SYSCLKSOURCE_STATUS_PLLCLK)
 8001b48:	2138      	movs	r1, #56	@ 0x38
 8001b4a:	4d43      	ldr	r5, [pc, #268]	@ (8001c58 <HAL_RCC_OscConfig+0x498>)
 8001b4c:	68aa      	ldr	r2, [r5, #8]
 8001b4e:	400a      	ands	r2, r1
 8001b50:	2a10      	cmp	r2, #16
 8001b52:	d053      	beq.n	8001bfc <HAL_RCC_OscConfig+0x43c>
      if (RCC_OscInitStruct->PLL.PLLState == RCC_PLL_ON)
 8001b54:	4a41      	ldr	r2, [pc, #260]	@ (8001c5c <HAL_RCC_OscConfig+0x49c>)
 8001b56:	2b02      	cmp	r3, #2
 8001b58:	d13a      	bne.n	8001bd0 <HAL_RCC_OscConfig+0x410>
        __HAL_RCC_PLL_DISABLE();
 8001b5a:	682b      	ldr	r3, [r5, #0]
        while (READ_BIT(RCC->CR, RCC_CR_PLLRDY) != 0U)
 8001b5c:	2780      	movs	r7, #128	@ 0x80
        __HAL_RCC_PLL_DISABLE();
 8001b5e:	4013      	ands	r3, r2
 8001b60:	602b      	str	r3, [r5, #0]
        tickstart = HAL_GetTick();
 8001b62:	f7fe feb7 	bl	80008d4 <HAL_GetTick>
 8001b66:	0006      	movs	r6, r0
        while (READ_BIT(RCC->CR, RCC_CR_PLLRDY) != 0U)
 8001b68:	04bf      	lsls	r7, r7, #18
 8001b6a:	682b      	ldr	r3, [r5, #0]
 8001b6c:	423b      	tst	r3, r7
 8001b6e:	d129      	bne.n	8001bc4 <HAL_RCC_OscConfig+0x404>
        __HAL_RCC_PLL_CONFIG(RCC_OscInitStruct->PLL.PLLSource,
 8001b70:	6aa1      	ldr	r1, [r4, #40]	@ 0x28
 8001b72:	6a63      	ldr	r3, [r4, #36]	@ 0x24
 8001b74:	68ea      	ldr	r2, [r5, #12]
 8001b76:	430b      	orrs	r3, r1
 8001b78:	4939      	ldr	r1, [pc, #228]	@ (8001c60 <HAL_RCC_OscConfig+0x4a0>)
        while (READ_BIT(RCC->CR, RCC_CR_PLLRDY) == 0U)
 8001b7a:	2680      	movs	r6, #128	@ 0x80
        __HAL_RCC_PLL_CONFIG(RCC_OscInitStruct->PLL.PLLSource,
 8001b7c:	400a      	ands	r2, r1
 8001b7e:	4313      	orrs	r3, r2
 8001b80:	6b22      	ldr	r2, [r4, #48]	@ 0x30
        while (READ_BIT(RCC->CR, RCC_CR_PLLRDY) == 0U)
 8001b82:	04b6      	lsls	r6, r6, #18
        __HAL_RCC_PLL_CONFIG(RCC_OscInitStruct->PLL.PLLSource,
 8001b84:	4313      	orrs	r3, r2
 8001b86:	6b62      	ldr	r2, [r4, #52]	@ 0x34
 8001b88:	4313      	orrs	r3, r2
 8001b8a:	6ba2      	ldr	r2, [r4, #56]	@ 0x38
 8001b8c:	4313      	orrs	r3, r2
 8001b8e:	6ae2      	ldr	r2, [r4, #44]	@ 0x2c
 8001b90:	0212      	lsls	r2, r2, #8
 8001b92:	4313      	orrs	r3, r2
 8001b94:	60eb      	str	r3, [r5, #12]
        __HAL_RCC_PLL_ENABLE();
 8001b96:	2380      	movs	r3, #128	@ 0x80
 8001b98:	682a      	ldr	r2, [r5, #0]
 8001b9a:	045b      	lsls	r3, r3, #17
 8001b9c:	4313      	orrs	r3, r2
 8001b9e:	602b      	str	r3, [r5, #0]
        __HAL_RCC_PLLCLKOUT_ENABLE(RCC_PLLRCLK);
 8001ba0:	2380      	movs	r3, #128	@ 0x80
 8001ba2:	68ea      	ldr	r2, [r5, #12]
 8001ba4:	055b      	lsls	r3, r3, #21
 8001ba6:	4313      	orrs	r3, r2
 8001ba8:	60eb      	str	r3, [r5, #12]
        tickstart = HAL_GetTick();
 8001baa:	f7fe fe93 	bl	80008d4 <HAL_GetTick>
 8001bae:	0004      	movs	r4, r0
        while (READ_BIT(RCC->CR, RCC_CR_PLLRDY) == 0U)
 8001bb0:	682b      	ldr	r3, [r5, #0]
 8001bb2:	4233      	tst	r3, r6
 8001bb4:	d000      	beq.n	8001bb8 <HAL_RCC_OscConfig+0x3f8>
 8001bb6:	e621      	b.n	80017fc <HAL_RCC_OscConfig+0x3c>
          if ((HAL_GetTick() - tickstart) > PLL_TIMEOUT_VALUE)
 8001bb8:	f7fe fe8c 	bl	80008d4 <HAL_GetTick>
 8001bbc:	1b00      	subs	r0, r0, r4
 8001bbe:	2802      	cmp	r0, #2
 8001bc0:	d9f6      	bls.n	8001bb0 <HAL_RCC_OscConfig+0x3f0>
 8001bc2:	e645      	b.n	8001850 <HAL_RCC_OscConfig+0x90>
          if ((HAL_GetTick() - tickstart) > PLL_TIMEOUT_VALUE)
 8001bc4:	f7fe fe86 	bl	80008d4 <HAL_GetTick>
 8001bc8:	1b80      	subs	r0, r0, r6
 8001bca:	2802      	cmp	r0, #2
 8001bcc:	d9cd      	bls.n	8001b6a <HAL_RCC_OscConfig+0x3aa>
 8001bce:	e63f      	b.n	8001850 <HAL_RCC_OscConfig+0x90>
        __HAL_RCC_PLL_DISABLE();
 8001bd0:	682b      	ldr	r3, [r5, #0]
        while (READ_BIT(RCC->CR, RCC_CR_PLLRDY) != 0U)
 8001bd2:	2680      	movs	r6, #128	@ 0x80
        __HAL_RCC_PLL_DISABLE();
 8001bd4:	4013      	ands	r3, r2
 8001bd6:	602b      	str	r3, [r5, #0]
        tickstart = HAL_GetTick();
 8001bd8:	f7fe fe7c 	bl	80008d4 <HAL_GetTick>
 8001bdc:	0004      	movs	r4, r0
        while (READ_BIT(RCC->CR, RCC_CR_PLLRDY) != 0U)
 8001bde:	04b6      	lsls	r6, r6, #18
 8001be0:	682b      	ldr	r3, [r5, #0]
 8001be2:	4233      	tst	r3, r6
 8001be4:	d104      	bne.n	8001bf0 <HAL_RCC_OscConfig+0x430>
        RCC->PLLCFGR &= ~(RCC_PLLCFGR_PLLSRC | RCC_PLLCFGR_PLLPEN | RCC_PLLCFGR_PLLQEN | RCC_PLLCFGR_PLLREN);
 8001be6:	68eb      	ldr	r3, [r5, #12]
 8001be8:	4a1e      	ldr	r2, [pc, #120]	@ (8001c64 <HAL_RCC_OscConfig+0x4a4>)
 8001bea:	4013      	ands	r3, r2
 8001bec:	60eb      	str	r3, [r5, #12]
 8001bee:	e605      	b.n	80017fc <HAL_RCC_OscConfig+0x3c>
          if ((HAL_GetTick() - tickstart) > PLL_TIMEOUT_VALUE)
 8001bf0:	f7fe fe70 	bl	80008d4 <HAL_GetTick>
 8001bf4:	1b00      	subs	r0, r0, r4
 8001bf6:	2802      	cmp	r0, #2
 8001bf8:	d9f2      	bls.n	8001be0 <HAL_RCC_OscConfig+0x420>
 8001bfa:	e629      	b.n	8001850 <HAL_RCC_OscConfig+0x90>
      if ((RCC_OscInitStruct->PLL.PLLState) == RCC_PLL_OFF)
 8001bfc:	2b01      	cmp	r3, #1
 8001bfe:	d100      	bne.n	8001c02 <HAL_RCC_OscConfig+0x442>
 8001c00:	e5e3      	b.n	80017ca <HAL_RCC_OscConfig+0xa>
        if ((READ_BIT(temp_pllckcfg, RCC_PLLCFGR_PLLSRC) != RCC_OscInitStruct->PLL.PLLSource) ||
 8001c02:	2203      	movs	r2, #3
        temp_pllckcfg = RCC->PLLCFGR;
 8001c04:	68e8      	ldr	r0, [r5, #12]
        if ((READ_BIT(temp_pllckcfg, RCC_PLLCFGR_PLLSRC) != RCC_OscInitStruct->PLL.PLLSource) ||
 8001c06:	6a61      	ldr	r1, [r4, #36]	@ 0x24
 8001c08:	4002      	ands	r2, r0
 8001c0a:	428a      	cmp	r2, r1
 8001c0c:	d000      	beq.n	8001c10 <HAL_RCC_OscConfig+0x450>
 8001c0e:	e5dc      	b.n	80017ca <HAL_RCC_OscConfig+0xa>
            (READ_BIT(temp_pllckcfg, RCC_PLLCFGR_PLLM) != RCC_OscInitStruct->PLL.PLLM) ||
 8001c10:	2270      	movs	r2, #112	@ 0x70
        if ((READ_BIT(temp_pllckcfg, RCC_PLLCFGR_PLLSRC) != RCC_OscInitStruct->PLL.PLLSource) ||
 8001c12:	6aa1      	ldr	r1, [r4, #40]	@ 0x28
            (READ_BIT(temp_pllckcfg, RCC_PLLCFGR_PLLM) != RCC_OscInitStruct->PLL.PLLM) ||
 8001c14:	4002      	ands	r2, r0
        if ((READ_BIT(temp_pllckcfg, RCC_PLLCFGR_PLLSRC) != RCC_OscInitStruct->PLL.PLLSource) ||
 8001c16:	428a      	cmp	r2, r1
 8001c18:	d000      	beq.n	8001c1c <HAL_RCC_OscConfig+0x45c>
 8001c1a:	e5d6      	b.n	80017ca <HAL_RCC_OscConfig+0xa>
            (READ_BIT(temp_pllckcfg, RCC_PLLCFGR_PLLN) != (RCC_OscInitStruct->PLL.PLLN << RCC_PLLCFGR_PLLN_Pos)) ||
 8001c1c:	21fe      	movs	r1, #254	@ 0xfe
 8001c1e:	6ae2      	ldr	r2, [r4, #44]	@ 0x2c
 8001c20:	01c9      	lsls	r1, r1, #7
 8001c22:	4001      	ands	r1, r0
 8001c24:	0212      	lsls	r2, r2, #8
            (READ_BIT(temp_pllckcfg, RCC_PLLCFGR_PLLM) != RCC_OscInitStruct->PLL.PLLM) ||
 8001c26:	4291      	cmp	r1, r2
 8001c28:	d000      	beq.n	8001c2c <HAL_RCC_OscConfig+0x46c>
 8001c2a:	e5ce      	b.n	80017ca <HAL_RCC_OscConfig+0xa>
            (READ_BIT(temp_pllckcfg, RCC_PLLCFGR_PLLP) != RCC_OscInitStruct->PLL.PLLP) ||
 8001c2c:	22f8      	movs	r2, #248	@ 0xf8
            (READ_BIT(temp_pllckcfg, RCC_PLLCFGR_PLLN) != (RCC_OscInitStruct->PLL.PLLN << RCC_PLLCFGR_PLLN_Pos)) ||
 8001c2e:	6b21      	ldr	r1, [r4, #48]	@ 0x30
            (READ_BIT(temp_pllckcfg, RCC_PLLCFGR_PLLP) != RCC_OscInitStruct->PLL.PLLP) ||
 8001c30:	0392      	lsls	r2, r2, #14
 8001c32:	4002      	ands	r2, r0
            (READ_BIT(temp_pllckcfg, RCC_PLLCFGR_PLLN) != (RCC_OscInitStruct->PLL.PLLN << RCC_PLLCFGR_PLLN_Pos)) ||
 8001c34:	428a      	cmp	r2, r1
 8001c36:	d000      	beq.n	8001c3a <HAL_RCC_OscConfig+0x47a>
 8001c38:	e5c7      	b.n	80017ca <HAL_RCC_OscConfig+0xa>
            (READ_BIT(temp_pllckcfg, RCC_PLLCFGR_PLLQ) != RCC_OscInitStruct->PLL.PLLQ) ||
 8001c3a:	22e0      	movs	r2, #224	@ 0xe0
            (READ_BIT(temp_pllckcfg, RCC_PLLCFGR_PLLP) != RCC_OscInitStruct->PLL.PLLP) ||
 8001c3c:	6b61      	ldr	r1, [r4, #52]	@ 0x34
            (READ_BIT(temp_pllckcfg, RCC_PLLCFGR_PLLQ) != RCC_OscInitStruct->PLL.PLLQ) ||
 8001c3e:	0512      	lsls	r2, r2, #20
 8001c40:	4002      	ands	r2, r0
            (READ_BIT(temp_pllckcfg, RCC_PLLCFGR_PLLP) != RCC_OscInitStruct->PLL.PLLP) ||
 8001c42:	428a      	cmp	r2, r1
 8001c44:	d000      	beq.n	8001c48 <HAL_RCC_OscConfig+0x488>
 8001c46:	e5c0      	b.n	80017ca <HAL_RCC_OscConfig+0xa>
            (READ_BIT(temp_pllckcfg, RCC_PLLCFGR_PLLQ) != RCC_OscInitStruct->PLL.PLLQ) ||
 8001c48:	6ba3      	ldr	r3, [r4, #56]	@ 0x38
            (READ_BIT(temp_pllckcfg, RCC_PLLCFGR_PLLR) != RCC_OscInitStruct->PLL.PLLR))
 8001c4a:	0f40      	lsrs	r0, r0, #29
 8001c4c:	0740      	lsls	r0, r0, #29
            (READ_BIT(temp_pllckcfg, RCC_PLLCFGR_PLLQ) != RCC_OscInitStruct->PLL.PLLQ) ||
 8001c4e:	1ac0      	subs	r0, r0, r3
 8001c50:	1e43      	subs	r3, r0, #1
 8001c52:	4198      	sbcs	r0, r3
 8001c54:	b2c0      	uxtb	r0, r0
 8001c56:	e5b9      	b.n	80017cc <HAL_RCC_OscConfig+0xc>
 8001c58:	40021000 	.word	0x40021000
 8001c5c:	feffffff 	.word	0xfeffffff
 8001c60:	11c1808c 	.word	0x11c1808c
 8001c64:	eefefffc 	.word	0xeefefffc

08001c68 <HAL_RCC_GetSysClockFreq>:
uint32_t HAL_RCC_GetSysClockFreq(void)
{
  uint32_t pllvco, pllsource, pllr, pllm, hsidiv;
  uint32_t sysclockfreq;

  if (__HAL_RCC_GET_SYSCLK_SOURCE() == RCC_SYSCLKSOURCE_STATUS_HSI)
 8001c68:	2338      	movs	r3, #56	@ 0x38
{
 8001c6a:	b570      	push	{r4, r5, r6, lr}
  if (__HAL_RCC_GET_SYSCLK_SOURCE() == RCC_SYSCLKSOURCE_STATUS_HSI)
 8001c6c:	4c1d      	ldr	r4, [pc, #116]	@ (8001ce4 <HAL_RCC_GetSysClockFreq+0x7c>)
 8001c6e:	68a2      	ldr	r2, [r4, #8]
 8001c70:	421a      	tst	r2, r3
 8001c72:	d105      	bne.n	8001c80 <HAL_RCC_GetSysClockFreq+0x18>
  {
    /* HSISYS can be derived for HSI16 */
    hsidiv = (1UL << ((READ_BIT(RCC->CR, RCC_CR_HSIDIV)) >> RCC_CR_HSIDIV_Pos));
 8001c74:	6823      	ldr	r3, [r4, #0]

    /* HSI used as system clock source */
    sysclockfreq = (HSI_VALUE / hsidiv);
 8001c76:	481c      	ldr	r0, [pc, #112]	@ (8001ce8 <HAL_RCC_GetSysClockFreq+0x80>)
    hsidiv = (1UL << ((READ_BIT(RCC->CR, RCC_CR_HSIDIV)) >> RCC_CR_HSIDIV_Pos));
 8001c78:	049b      	lsls	r3, r3, #18
 8001c7a:	0f5b      	lsrs	r3, r3, #29
    sysclockfreq = (HSI_VALUE / hsidiv);
 8001c7c:	40d8      	lsrs	r0, r3
  {
    sysclockfreq = 0U;
  }

  return sysclockfreq;
}
 8001c7e:	bd70      	pop	{r4, r5, r6, pc}
  else if (__HAL_RCC_GET_SYSCLK_SOURCE() == RCC_SYSCLKSOURCE_STATUS_HSE)
 8001c80:	68a2      	ldr	r2, [r4, #8]
 8001c82:	401a      	ands	r2, r3
 8001c84:	2a08      	cmp	r2, #8
 8001c86:	d027      	beq.n	8001cd8 <HAL_RCC_GetSysClockFreq+0x70>
  else if (__HAL_RCC_GET_SYSCLK_SOURCE() == RCC_SYSCLKSOURCE_STATUS_PLLCLK)
 8001c88:	68a2      	ldr	r2, [r4, #8]
 8001c8a:	401a      	ands	r2, r3
 8001c8c:	2a10      	cmp	r2, #16
 8001c8e:	d117      	bne.n	8001cc0 <HAL_RCC_GetSysClockFreq+0x58>
    pllsource = (RCC->PLLCFGR & RCC_PLLCFGR_PLLSRC);
 8001c90:	68e3      	ldr	r3, [r4, #12]
    pllm = ((RCC->PLLCFGR & RCC_PLLCFGR_PLLM) >> RCC_PLLCFGR_PLLM_Pos) + 1U ;
 8001c92:	68e1      	ldr	r1, [r4, #12]
    pllsource = (RCC->PLLCFGR & RCC_PLLCFGR_PLLSRC);
 8001c94:	43db      	mvns	r3, r3
        pllvco = (HSI_VALUE / pllm) * ((RCC->PLLCFGR & RCC_PLLCFGR_PLLN) >> RCC_PLLCFGR_PLLN_Pos) ;
 8001c96:	68e5      	ldr	r5, [r4, #12]
    pllm = ((RCC->PLLCFGR & RCC_PLLCFGR_PLLM) >> RCC_PLLCFGR_PLLM_Pos) + 1U ;
 8001c98:	0649      	lsls	r1, r1, #25
 8001c9a:	0f49      	lsrs	r1, r1, #29
 8001c9c:	326f      	adds	r2, #111	@ 0x6f
        pllvco = (HSI_VALUE / pllm) * ((RCC->PLLCFGR & RCC_PLLCFGR_PLLN) >> RCC_PLLCFGR_PLLN_Pos) ;
 8001c9e:	0a2d      	lsrs	r5, r5, #8
    pllm = ((RCC->PLLCFGR & RCC_PLLCFGR_PLLM) >> RCC_PLLCFGR_PLLM_Pos) + 1U ;
 8001ca0:	3101      	adds	r1, #1
        pllvco = (HSI_VALUE / pllm) * ((RCC->PLLCFGR & RCC_PLLCFGR_PLLN) >> RCC_PLLCFGR_PLLN_Pos) ;
 8001ca2:	4015      	ands	r5, r2
    switch (pllsource)
 8001ca4:	079b      	lsls	r3, r3, #30
 8001ca6:	d109      	bne.n	8001cbc <HAL_RCC_GetSysClockFreq+0x54>
        pllvco = (HSE_VALUE / pllm) * ((RCC->PLLCFGR & RCC_PLLCFGR_PLLN) >> RCC_PLLCFGR_PLLN_Pos);
 8001ca8:	4810      	ldr	r0, [pc, #64]	@ (8001cec <HAL_RCC_GetSysClockFreq+0x84>)
        pllvco = (HSI_VALUE / pllm) * ((RCC->PLLCFGR & RCC_PLLCFGR_PLLN) >> RCC_PLLCFGR_PLLN_Pos) ;
 8001caa:	f7fe fa51 	bl	8000150 <__udivsi3>
    pllr = (((RCC->PLLCFGR & RCC_PLLCFGR_PLLR) >> RCC_PLLCFGR_PLLR_Pos) + 1U);
 8001cae:	68e1      	ldr	r1, [r4, #12]
        pllvco = (HSI_VALUE / pllm) * ((RCC->PLLCFGR & RCC_PLLCFGR_PLLN) >> RCC_PLLCFGR_PLLN_Pos) ;
 8001cb0:	4368      	muls	r0, r5
    pllr = (((RCC->PLLCFGR & RCC_PLLCFGR_PLLR) >> RCC_PLLCFGR_PLLR_Pos) + 1U);
 8001cb2:	0f49      	lsrs	r1, r1, #29
 8001cb4:	3101      	adds	r1, #1
    sysclockfreq = pllvco / pllr;
 8001cb6:	f7fe fa4b 	bl	8000150 <__udivsi3>
 8001cba:	e7e0      	b.n	8001c7e <HAL_RCC_GetSysClockFreq+0x16>
        pllvco = (HSI_VALUE / pllm) * ((RCC->PLLCFGR & RCC_PLLCFGR_PLLN) >> RCC_PLLCFGR_PLLN_Pos) ;
 8001cbc:	480a      	ldr	r0, [pc, #40]	@ (8001ce8 <HAL_RCC_GetSysClockFreq+0x80>)
 8001cbe:	e7f4      	b.n	8001caa <HAL_RCC_GetSysClockFreq+0x42>
  else if (__HAL_RCC_GET_SYSCLK_SOURCE() == RCC_SYSCLKSOURCE_STATUS_LSE)
 8001cc0:	68a2      	ldr	r2, [r4, #8]
 8001cc2:	401a      	ands	r2, r3
 8001cc4:	2a20      	cmp	r2, #32
 8001cc6:	d009      	beq.n	8001cdc <HAL_RCC_GetSysClockFreq+0x74>
  else if (__HAL_RCC_GET_SYSCLK_SOURCE() == RCC_SYSCLKSOURCE_STATUS_LSI)
 8001cc8:	68a2      	ldr	r2, [r4, #8]
    sysclockfreq = 0U;
 8001cca:	2000      	movs	r0, #0
  else if (__HAL_RCC_GET_SYSCLK_SOURCE() == RCC_SYSCLKSOURCE_STATUS_LSI)
 8001ccc:	4013      	ands	r3, r2
 8001cce:	2b18      	cmp	r3, #24
 8001cd0:	d1d5      	bne.n	8001c7e <HAL_RCC_GetSysClockFreq+0x16>
    sysclockfreq = LSI_VALUE;
 8001cd2:	20fa      	movs	r0, #250	@ 0xfa
 8001cd4:	01c0      	lsls	r0, r0, #7
 8001cd6:	e7d2      	b.n	8001c7e <HAL_RCC_GetSysClockFreq+0x16>
    sysclockfreq = HSE_VALUE;
 8001cd8:	4804      	ldr	r0, [pc, #16]	@ (8001cec <HAL_RCC_GetSysClockFreq+0x84>)
 8001cda:	e7d0      	b.n	8001c7e <HAL_RCC_GetSysClockFreq+0x16>
    sysclockfreq = LSE_VALUE;
 8001cdc:	2080      	movs	r0, #128	@ 0x80
 8001cde:	0200      	lsls	r0, r0, #8
 8001ce0:	e7cd      	b.n	8001c7e <HAL_RCC_GetSysClockFreq+0x16>
 8001ce2:	46c0      	nop			@ (mov r8, r8)
 8001ce4:	40021000 	.word	0x40021000
 8001ce8:	00f42400 	.word	0x00f42400
 8001cec:	007a1200 	.word	0x007a1200

08001cf0 <HAL_RCC_ClockConfig>:
{
 8001cf0:	b5f7      	push	{r0, r1, r2, r4, r5, r6, r7, lr}
 8001cf2:	0004      	movs	r4, r0
 8001cf4:	000d      	movs	r5, r1
  if (RCC_ClkInitStruct == NULL)
 8001cf6:	2800      	cmp	r0, #0
 8001cf8:	d101      	bne.n	8001cfe <HAL_RCC_ClockConfig+0xe>
    return HAL_ERROR;
 8001cfa:	2001      	movs	r0, #1
}
 8001cfc:	bdfe      	pop	{r1, r2, r3, r4, r5, r6, r7, pc}
  if (FLatency > __HAL_FLASH_GET_LATENCY())
 8001cfe:	2707      	movs	r7, #7
 8001d00:	4e48      	ldr	r6, [pc, #288]	@ (8001e24 <HAL_RCC_ClockConfig+0x134>)
 8001d02:	6833      	ldr	r3, [r6, #0]
 8001d04:	403b      	ands	r3, r7
 8001d06:	428b      	cmp	r3, r1
 8001d08:	d32a      	bcc.n	8001d60 <HAL_RCC_ClockConfig+0x70>
  if (((RCC_ClkInitStruct->ClockType) & RCC_CLOCKTYPE_HCLK) == RCC_CLOCKTYPE_HCLK)
 8001d0a:	6822      	ldr	r2, [r4, #0]
 8001d0c:	0793      	lsls	r3, r2, #30
 8001d0e:	d43b      	bmi.n	8001d88 <HAL_RCC_ClockConfig+0x98>
  if (((RCC_ClkInitStruct->ClockType) & RCC_CLOCKTYPE_SYSCLK) == RCC_CLOCKTYPE_SYSCLK)
 8001d10:	07d2      	lsls	r2, r2, #31
 8001d12:	d448      	bmi.n	8001da6 <HAL_RCC_ClockConfig+0xb6>
  if (FLatency < __HAL_FLASH_GET_LATENCY())
 8001d14:	2707      	movs	r7, #7
 8001d16:	6833      	ldr	r3, [r6, #0]
 8001d18:	403b      	ands	r3, r7
 8001d1a:	42ab      	cmp	r3, r5
 8001d1c:	d90a      	bls.n	8001d34 <HAL_RCC_ClockConfig+0x44>
    __HAL_FLASH_SET_LATENCY(FLatency);
 8001d1e:	6833      	ldr	r3, [r6, #0]
 8001d20:	43bb      	bics	r3, r7
 8001d22:	432b      	orrs	r3, r5
 8001d24:	6033      	str	r3, [r6, #0]
    tickstart = HAL_GetTick();
 8001d26:	f7fe fdd5 	bl	80008d4 <HAL_GetTick>
 8001d2a:	9001      	str	r0, [sp, #4]
    while ((FLASH->ACR & FLASH_ACR_LATENCY) != FLatency)
 8001d2c:	6833      	ldr	r3, [r6, #0]
 8001d2e:	403b      	ands	r3, r7
 8001d30:	42ab      	cmp	r3, r5
 8001d32:	d168      	bne.n	8001e06 <HAL_RCC_ClockConfig+0x116>
  if (((RCC_ClkInitStruct->ClockType) & RCC_CLOCKTYPE_PCLK1) == RCC_CLOCKTYPE_PCLK1)
 8001d34:	6823      	ldr	r3, [r4, #0]
 8001d36:	4d3c      	ldr	r5, [pc, #240]	@ (8001e28 <HAL_RCC_ClockConfig+0x138>)
 8001d38:	075b      	lsls	r3, r3, #29
 8001d3a:	d46c      	bmi.n	8001e16 <HAL_RCC_ClockConfig+0x126>
  SystemCoreClock = (HAL_RCC_GetSysClockFreq() >> ((AHBPrescTable[(RCC->CFGR & RCC_CFGR_HPRE) >> RCC_CFGR_HPRE_Pos]) & 0x1FU));
 8001d3c:	f7ff ff94 	bl	8001c68 <HAL_RCC_GetSysClockFreq>
 8001d40:	68ab      	ldr	r3, [r5, #8]
 8001d42:	493a      	ldr	r1, [pc, #232]	@ (8001e2c <HAL_RCC_ClockConfig+0x13c>)
 8001d44:	051b      	lsls	r3, r3, #20
 8001d46:	0f1b      	lsrs	r3, r3, #28
 8001d48:	009b      	lsls	r3, r3, #2
 8001d4a:	585b      	ldr	r3, [r3, r1]
 8001d4c:	211f      	movs	r1, #31
 8001d4e:	400b      	ands	r3, r1
 8001d50:	40d8      	lsrs	r0, r3
 8001d52:	4a37      	ldr	r2, [pc, #220]	@ (8001e30 <HAL_RCC_ClockConfig+0x140>)
  return HAL_InitTick(uwTickPrio);
 8001d54:	4b37      	ldr	r3, [pc, #220]	@ (8001e34 <HAL_RCC_ClockConfig+0x144>)
  SystemCoreClock = (HAL_RCC_GetSysClockFreq() >> ((AHBPrescTable[(RCC->CFGR & RCC_CFGR_HPRE) >> RCC_CFGR_HPRE_Pos]) & 0x1FU));
 8001d56:	6010      	str	r0, [r2, #0]
  return HAL_InitTick(uwTickPrio);
 8001d58:	6818      	ldr	r0, [r3, #0]
 8001d5a:	f7fe fd73 	bl	8000844 <HAL_InitTick>
 8001d5e:	e7cd      	b.n	8001cfc <HAL_RCC_ClockConfig+0xc>
    __HAL_FLASH_SET_LATENCY(FLatency);
 8001d60:	6833      	ldr	r3, [r6, #0]
 8001d62:	43bb      	bics	r3, r7
 8001d64:	430b      	orrs	r3, r1
 8001d66:	6033      	str	r3, [r6, #0]
    tickstart = HAL_GetTick();
 8001d68:	f7fe fdb4 	bl	80008d4 <HAL_GetTick>
 8001d6c:	9001      	str	r0, [sp, #4]
    while ((FLASH->ACR & FLASH_ACR_LATENCY) != FLatency)
 8001d6e:	6833      	ldr	r3, [r6, #0]
 8001d70:	403b      	ands	r3, r7
 8001d72:	42ab      	cmp	r3, r5
 8001d74:	d0c9      	beq.n	8001d0a <HAL_RCC_ClockConfig+0x1a>
      if ((HAL_GetTick() - tickstart) > CLOCKSWITCH_TIMEOUT_VALUE)
 8001d76:	f7fe fdad 	bl	80008d4 <HAL_GetTick>
 8001d7a:	9b01      	ldr	r3, [sp, #4]
 8001d7c:	1ac0      	subs	r0, r0, r3
 8001d7e:	4b2e      	ldr	r3, [pc, #184]	@ (8001e38 <HAL_RCC_ClockConfig+0x148>)
 8001d80:	4298      	cmp	r0, r3
 8001d82:	d9f4      	bls.n	8001d6e <HAL_RCC_ClockConfig+0x7e>
        return HAL_TIMEOUT;
 8001d84:	2003      	movs	r0, #3
 8001d86:	e7b9      	b.n	8001cfc <HAL_RCC_ClockConfig+0xc>
    if (((RCC_ClkInitStruct->ClockType) & RCC_CLOCKTYPE_PCLK1) == RCC_CLOCKTYPE_PCLK1)
 8001d88:	4927      	ldr	r1, [pc, #156]	@ (8001e28 <HAL_RCC_ClockConfig+0x138>)
 8001d8a:	0753      	lsls	r3, r2, #29
 8001d8c:	d504      	bpl.n	8001d98 <HAL_RCC_ClockConfig+0xa8>
      MODIFY_REG(RCC->CFGR, RCC_CFGR_PPRE, RCC_HCLK_DIV16);
 8001d8e:	23e0      	movs	r3, #224	@ 0xe0
 8001d90:	6888      	ldr	r0, [r1, #8]
 8001d92:	01db      	lsls	r3, r3, #7
 8001d94:	4303      	orrs	r3, r0
 8001d96:	608b      	str	r3, [r1, #8]
    MODIFY_REG(RCC->CFGR, RCC_CFGR_HPRE, RCC_ClkInitStruct->AHBCLKDivider);
 8001d98:	688b      	ldr	r3, [r1, #8]
 8001d9a:	4828      	ldr	r0, [pc, #160]	@ (8001e3c <HAL_RCC_ClockConfig+0x14c>)
 8001d9c:	4003      	ands	r3, r0
 8001d9e:	68a0      	ldr	r0, [r4, #8]
 8001da0:	4303      	orrs	r3, r0
 8001da2:	608b      	str	r3, [r1, #8]
 8001da4:	e7b4      	b.n	8001d10 <HAL_RCC_ClockConfig+0x20>
    if (RCC_ClkInitStruct->SYSCLKSource == RCC_SYSCLKSOURCE_HSE)
 8001da6:	6860      	ldr	r0, [r4, #4]
 8001da8:	4f1f      	ldr	r7, [pc, #124]	@ (8001e28 <HAL_RCC_ClockConfig+0x138>)
 8001daa:	2803      	cmp	r0, #3
 8001dac:	d829      	bhi.n	8001e02 <HAL_RCC_ClockConfig+0x112>
 8001dae:	f7fe f9bb 	bl	8000128 <__gnu_thumb1_case_uqi>
 8001db2:	0220      	.short	0x0220
 8001db4:	241c      	.short	0x241c
      if (READ_BIT(RCC->CR, RCC_CR_HSERDY) == 0U)
 8001db6:	683b      	ldr	r3, [r7, #0]
 8001db8:	039b      	lsls	r3, r3, #14
 8001dba:	d59e      	bpl.n	8001cfa <HAL_RCC_ClockConfig+0xa>
    MODIFY_REG(RCC->CFGR, RCC_CFGR_SW, RCC_ClkInitStruct->SYSCLKSource);
 8001dbc:	2207      	movs	r2, #7
 8001dbe:	68bb      	ldr	r3, [r7, #8]
 8001dc0:	4393      	bics	r3, r2
 8001dc2:	4303      	orrs	r3, r0
 8001dc4:	60bb      	str	r3, [r7, #8]
    tickstart = HAL_GetTick();
 8001dc6:	f7fe fd85 	bl	80008d4 <HAL_GetTick>
 8001dca:	9001      	str	r0, [sp, #4]
    while (__HAL_RCC_GET_SYSCLK_SOURCE() != (RCC_ClkInitStruct->SYSCLKSource << RCC_CFGR_SWS_Pos))
 8001dcc:	2338      	movs	r3, #56	@ 0x38
 8001dce:	68ba      	ldr	r2, [r7, #8]
 8001dd0:	401a      	ands	r2, r3
 8001dd2:	6863      	ldr	r3, [r4, #4]
 8001dd4:	00db      	lsls	r3, r3, #3
 8001dd6:	429a      	cmp	r2, r3
 8001dd8:	d09c      	beq.n	8001d14 <HAL_RCC_ClockConfig+0x24>
      if ((HAL_GetTick() - tickstart) > CLOCKSWITCH_TIMEOUT_VALUE)
 8001dda:	f7fe fd7b 	bl	80008d4 <HAL_GetTick>
 8001dde:	9b01      	ldr	r3, [sp, #4]
 8001de0:	1ac0      	subs	r0, r0, r3
 8001de2:	4b15      	ldr	r3, [pc, #84]	@ (8001e38 <HAL_RCC_ClockConfig+0x148>)
 8001de4:	4298      	cmp	r0, r3
 8001de6:	d9f1      	bls.n	8001dcc <HAL_RCC_ClockConfig+0xdc>
 8001de8:	e7cc      	b.n	8001d84 <HAL_RCC_ClockConfig+0x94>
      if (READ_BIT(RCC->CR, RCC_CR_PLLRDY) == 0U)
 8001dea:	683b      	ldr	r3, [r7, #0]
 8001dec:	019b      	lsls	r3, r3, #6
 8001dee:	d4e5      	bmi.n	8001dbc <HAL_RCC_ClockConfig+0xcc>
 8001df0:	e783      	b.n	8001cfa <HAL_RCC_ClockConfig+0xa>
      if (READ_BIT(RCC->CR, RCC_CR_HSIRDY) == 0U)
 8001df2:	683b      	ldr	r3, [r7, #0]
 8001df4:	055b      	lsls	r3, r3, #21
 8001df6:	d4e1      	bmi.n	8001dbc <HAL_RCC_ClockConfig+0xcc>
 8001df8:	e77f      	b.n	8001cfa <HAL_RCC_ClockConfig+0xa>
      if (READ_BIT(RCC->CSR, RCC_CSR_LSIRDY) == 0U)
 8001dfa:	6e3b      	ldr	r3, [r7, #96]	@ 0x60
      if (READ_BIT(RCC->BDCR, RCC_BDCR_LSERDY) == 0U)
 8001dfc:	079b      	lsls	r3, r3, #30
 8001dfe:	d4dd      	bmi.n	8001dbc <HAL_RCC_ClockConfig+0xcc>
 8001e00:	e77b      	b.n	8001cfa <HAL_RCC_ClockConfig+0xa>
 8001e02:	6dfb      	ldr	r3, [r7, #92]	@ 0x5c
 8001e04:	e7fa      	b.n	8001dfc <HAL_RCC_ClockConfig+0x10c>
      if ((HAL_GetTick() - tickstart) > CLOCKSWITCH_TIMEOUT_VALUE)
 8001e06:	f7fe fd65 	bl	80008d4 <HAL_GetTick>
 8001e0a:	9b01      	ldr	r3, [sp, #4]
 8001e0c:	1ac0      	subs	r0, r0, r3
 8001e0e:	4b0a      	ldr	r3, [pc, #40]	@ (8001e38 <HAL_RCC_ClockConfig+0x148>)
 8001e10:	4298      	cmp	r0, r3
 8001e12:	d98b      	bls.n	8001d2c <HAL_RCC_ClockConfig+0x3c>
 8001e14:	e7b6      	b.n	8001d84 <HAL_RCC_ClockConfig+0x94>
    MODIFY_REG(RCC->CFGR, RCC_CFGR_PPRE, RCC_ClkInitStruct->APB1CLKDivider);
 8001e16:	68ab      	ldr	r3, [r5, #8]
 8001e18:	4a09      	ldr	r2, [pc, #36]	@ (8001e40 <HAL_RCC_ClockConfig+0x150>)
 8001e1a:	4013      	ands	r3, r2
 8001e1c:	68e2      	ldr	r2, [r4, #12]
 8001e1e:	4313      	orrs	r3, r2
 8001e20:	60ab      	str	r3, [r5, #8]
 8001e22:	e78b      	b.n	8001d3c <HAL_RCC_ClockConfig+0x4c>
 8001e24:	40022000 	.word	0x40022000
 8001e28:	40021000 	.word	0x40021000
 8001e2c:	0800362c 	.word	0x0800362c
 8001e30:	20000000 	.word	0x20000000
 8001e34:	200000ac 	.word	0x200000ac
 8001e38:	00001388 	.word	0x00001388
 8001e3c:	fffff0ff 	.word	0xfffff0ff
 8001e40:	ffff8fff 	.word	0xffff8fff

08001e44 <HAL_RCCEx_PeriphCLKConfig>:
  *         the RTC clock source: in this case the access to Backup domain is enabled.
  *
  * @retval HAL status
  */
HAL_StatusTypeDef HAL_RCCEx_PeriphCLKConfig(RCC_PeriphCLKInitTypeDef const *PeriphClkInit)
{
 8001e44:	b5f0      	push	{r4, r5, r6, r7, lr}

  /* Check the parameters */
  assert_param(IS_RCC_PERIPHCLOCK(PeriphClkInit->PeriphClockSelection));

  /*-------------------------- RTC clock source configuration ----------------------*/
  if ((PeriphClkInit->PeriphClockSelection & RCC_PERIPHCLK_RTC) == RCC_PERIPHCLK_RTC)
 8001e46:	6803      	ldr	r3, [r0, #0]
{
 8001e48:	0004      	movs	r4, r0
 8001e4a:	b085      	sub	sp, #20
  HAL_StatusTypeDef status = HAL_OK;   /* Final status */
 8001e4c:	2000      	movs	r0, #0
  if ((PeriphClkInit->PeriphClockSelection & RCC_PERIPHCLK_RTC) == RCC_PERIPHCLK_RTC)
 8001e4e:	039b      	lsls	r3, r3, #14
 8001e50:	d552      	bpl.n	8001ef8 <HAL_RCCEx_PeriphCLKConfig+0xb4>

    /* Check for RTC Parameters used to output RTCCLK */
    assert_param(IS_RCC_RTCCLKSOURCE(PeriphClkInit->RTCClockSelection));

    /* Enable Power Clock */
    if (__HAL_RCC_PWR_IS_CLK_DISABLED())
 8001e52:	2280      	movs	r2, #128	@ 0x80
 8001e54:	4d97      	ldr	r5, [pc, #604]	@ (80020b4 <HAL_RCCEx_PeriphCLKConfig+0x270>)
 8001e56:	0552      	lsls	r2, r2, #21
 8001e58:	6beb      	ldr	r3, [r5, #60]	@ 0x3c
    FlagStatus       pwrclkchanged = RESET;
 8001e5a:	9000      	str	r0, [sp, #0]
    if (__HAL_RCC_PWR_IS_CLK_DISABLED())
 8001e5c:	4213      	tst	r3, r2
 8001e5e:	d108      	bne.n	8001e72 <HAL_RCCEx_PeriphCLKConfig+0x2e>
    {
      __HAL_RCC_PWR_CLK_ENABLE();
 8001e60:	6beb      	ldr	r3, [r5, #60]	@ 0x3c
 8001e62:	4313      	orrs	r3, r2
 8001e64:	63eb      	str	r3, [r5, #60]	@ 0x3c
 8001e66:	6beb      	ldr	r3, [r5, #60]	@ 0x3c
 8001e68:	4013      	ands	r3, r2
 8001e6a:	9303      	str	r3, [sp, #12]
 8001e6c:	9b03      	ldr	r3, [sp, #12]
      pwrclkchanged = SET;
 8001e6e:	2301      	movs	r3, #1
 8001e70:	9300      	str	r3, [sp, #0]
    }

    /* Enable write access to Backup domain */
    SET_BIT(PWR->CR1, PWR_CR1_DBP);
 8001e72:	2780      	movs	r7, #128	@ 0x80
 8001e74:	4e90      	ldr	r6, [pc, #576]	@ (80020b8 <HAL_RCCEx_PeriphCLKConfig+0x274>)
 8001e76:	007f      	lsls	r7, r7, #1
 8001e78:	6833      	ldr	r3, [r6, #0]
 8001e7a:	433b      	orrs	r3, r7
 8001e7c:	6033      	str	r3, [r6, #0]

    /* Wait for Backup domain Write protection disable */
    tickstart = HAL_GetTick();
 8001e7e:	f7fe fd29 	bl	80008d4 <HAL_GetTick>
 8001e82:	9001      	str	r0, [sp, #4]

    while ((PWR->CR1 & PWR_CR1_DBP) == 0U)
 8001e84:	6833      	ldr	r3, [r6, #0]
 8001e86:	423b      	tst	r3, r7
 8001e88:	d028      	beq.n	8001edc <HAL_RCCEx_PeriphCLKConfig+0x98>
    }

    if (ret == HAL_OK)
    {
      /* Reset the Backup domain only if the RTC Clock source selection is modified from default */
      tmpregister = READ_BIT(RCC->BDCR, RCC_BDCR_RTCSEL);
 8001e8a:	6dea      	ldr	r2, [r5, #92]	@ 0x5c
 8001e8c:	23c0      	movs	r3, #192	@ 0xc0
 8001e8e:	0010      	movs	r0, r2
 8001e90:	009b      	lsls	r3, r3, #2

      /* Reset the Backup domain only if the RTC Clock source selection is modified */
      if ((tmpregister != RCC_RTCCLKSOURCE_NONE) && (tmpregister != PeriphClkInit->RTCClockSelection))
 8001e92:	6c21      	ldr	r1, [r4, #64]	@ 0x40
 8001e94:	4e89      	ldr	r6, [pc, #548]	@ (80020bc <HAL_RCCEx_PeriphCLKConfig+0x278>)
      tmpregister = READ_BIT(RCC->BDCR, RCC_BDCR_RTCSEL);
 8001e96:	4018      	ands	r0, r3
      if ((tmpregister != RCC_RTCCLKSOURCE_NONE) && (tmpregister != PeriphClkInit->RTCClockSelection))
 8001e98:	421a      	tst	r2, r3
 8001e9a:	d018      	beq.n	8001ece <HAL_RCCEx_PeriphCLKConfig+0x8a>
 8001e9c:	4281      	cmp	r1, r0
 8001e9e:	d016      	beq.n	8001ece <HAL_RCCEx_PeriphCLKConfig+0x8a>
      {
        /* Store the content of BDCR register before the reset of Backup Domain */
        tmpregister = READ_BIT(RCC->BDCR, ~(RCC_BDCR_RTCSEL));
        /* RTC Clock selection can be changed only if the Backup Domain is reset */
        __HAL_RCC_BACKUPRESET_FORCE();
 8001ea0:	2280      	movs	r2, #128	@ 0x80
        tmpregister = READ_BIT(RCC->BDCR, ~(RCC_BDCR_RTCSEL));
 8001ea2:	6deb      	ldr	r3, [r5, #92]	@ 0x5c
        __HAL_RCC_BACKUPRESET_FORCE();
 8001ea4:	6de8      	ldr	r0, [r5, #92]	@ 0x5c
        tmpregister = READ_BIT(RCC->BDCR, ~(RCC_BDCR_RTCSEL));
 8001ea6:	0019      	movs	r1, r3
        __HAL_RCC_BACKUPRESET_FORCE();
 8001ea8:	0252      	lsls	r2, r2, #9
 8001eaa:	4302      	orrs	r2, r0
 8001eac:	65ea      	str	r2, [r5, #92]	@ 0x5c
        __HAL_RCC_BACKUPRESET_RELEASE();
 8001eae:	6dea      	ldr	r2, [r5, #92]	@ 0x5c
 8001eb0:	4883      	ldr	r0, [pc, #524]	@ (80020c0 <HAL_RCCEx_PeriphCLKConfig+0x27c>)
        tmpregister = READ_BIT(RCC->BDCR, ~(RCC_BDCR_RTCSEL));
 8001eb2:	4031      	ands	r1, r6
        __HAL_RCC_BACKUPRESET_RELEASE();
 8001eb4:	4002      	ands	r2, r0
 8001eb6:	65ea      	str	r2, [r5, #92]	@ 0x5c
        /* Restore the Content of BDCR register */
        RCC->BDCR = tmpregister;
 8001eb8:	65e9      	str	r1, [r5, #92]	@ 0x5c
      }

      /* Wait for LSE reactivation if LSE was enable prior to Backup Domain reset */
      if (HAL_IS_BIT_SET(tmpregister, RCC_BDCR_LSEON))
 8001eba:	07db      	lsls	r3, r3, #31
 8001ebc:	d507      	bpl.n	8001ece <HAL_RCCEx_PeriphCLKConfig+0x8a>
      {
        /* Get Start Tick*/
        tickstart = HAL_GetTick();
 8001ebe:	f7fe fd09 	bl	80008d4 <HAL_GetTick>
 8001ec2:	0007      	movs	r7, r0

        /* Wait till LSE is ready */
        while (READ_BIT(RCC->BDCR, RCC_BDCR_LSERDY) == 0U)
 8001ec4:	2202      	movs	r2, #2
 8001ec6:	6deb      	ldr	r3, [r5, #92]	@ 0x5c
 8001ec8:	4213      	tst	r3, r2
 8001eca:	d100      	bne.n	8001ece <HAL_RCCEx_PeriphCLKConfig+0x8a>
 8001ecc:	e0e9      	b.n	80020a2 <HAL_RCCEx_PeriphCLKConfig+0x25e>
      }

      if (ret == HAL_OK)
      {
        /* Apply new RTC clock source selection */
        __HAL_RCC_RTC_CONFIG(PeriphClkInit->RTCClockSelection);
 8001ece:	6deb      	ldr	r3, [r5, #92]	@ 0x5c
 8001ed0:	6c22      	ldr	r2, [r4, #64]	@ 0x40
 8001ed2:	4033      	ands	r3, r6
 8001ed4:	4313      	orrs	r3, r2
  HAL_StatusTypeDef status = HAL_OK;   /* Final status */
 8001ed6:	2000      	movs	r0, #0
        __HAL_RCC_RTC_CONFIG(PeriphClkInit->RTCClockSelection);
 8001ed8:	65eb      	str	r3, [r5, #92]	@ 0x5c
 8001eda:	e006      	b.n	8001eea <HAL_RCCEx_PeriphCLKConfig+0xa6>
      if ((HAL_GetTick() - tickstart) > RCC_DBP_TIMEOUT_VALUE)
 8001edc:	f7fe fcfa 	bl	80008d4 <HAL_GetTick>
 8001ee0:	9b01      	ldr	r3, [sp, #4]
 8001ee2:	1ac0      	subs	r0, r0, r3
 8001ee4:	2802      	cmp	r0, #2
 8001ee6:	d9cd      	bls.n	8001e84 <HAL_RCCEx_PeriphCLKConfig+0x40>
      }
      else
      {
        /* set overall return value */
        status = ret;
 8001ee8:	2003      	movs	r0, #3
      /* set overall return value */
      status = ret;
    }

    /* Restore clock configuration if changed */
    if (pwrclkchanged == SET)
 8001eea:	9b00      	ldr	r3, [sp, #0]
 8001eec:	2b01      	cmp	r3, #1
 8001eee:	d103      	bne.n	8001ef8 <HAL_RCCEx_PeriphCLKConfig+0xb4>
    {
      __HAL_RCC_PWR_CLK_DISABLE();
 8001ef0:	6beb      	ldr	r3, [r5, #60]	@ 0x3c
 8001ef2:	4a74      	ldr	r2, [pc, #464]	@ (80020c4 <HAL_RCCEx_PeriphCLKConfig+0x280>)
 8001ef4:	4013      	ands	r3, r2
 8001ef6:	63eb      	str	r3, [r5, #60]	@ 0x3c
    }
  }

  /*-------------------------- USART1 clock source configuration -------------------*/
  if (((PeriphClkInit->PeriphClockSelection) & RCC_PERIPHCLK_USART1) == RCC_PERIPHCLK_USART1)
 8001ef8:	6823      	ldr	r3, [r4, #0]
 8001efa:	07da      	lsls	r2, r3, #31
 8001efc:	d506      	bpl.n	8001f0c <HAL_RCCEx_PeriphCLKConfig+0xc8>
  {
    /* Check the parameters */
    assert_param(IS_RCC_USART1CLKSOURCE(PeriphClkInit->Usart1ClockSelection));

    /* Configure the USART1 clock source */
    __HAL_RCC_USART1_CONFIG(PeriphClkInit->Usart1ClockSelection);
 8001efe:	2503      	movs	r5, #3
 8001f00:	496c      	ldr	r1, [pc, #432]	@ (80020b4 <HAL_RCCEx_PeriphCLKConfig+0x270>)
 8001f02:	6d4a      	ldr	r2, [r1, #84]	@ 0x54
 8001f04:	43aa      	bics	r2, r5
 8001f06:	6865      	ldr	r5, [r4, #4]
 8001f08:	432a      	orrs	r2, r5
 8001f0a:	654a      	str	r2, [r1, #84]	@ 0x54
  }

#if defined(RCC_CCIPR_USART2SEL)
  /*-------------------------- USART2 clock source configuration -------------------*/
  if (((PeriphClkInit->PeriphClockSelection) & RCC_PERIPHCLK_USART2) == RCC_PERIPHCLK_USART2)
 8001f0c:	079a      	lsls	r2, r3, #30
 8001f0e:	d506      	bpl.n	8001f1e <HAL_RCCEx_PeriphCLKConfig+0xda>
  {
    /* Check the parameters */
    assert_param(IS_RCC_USART2CLKSOURCE(PeriphClkInit->Usart2ClockSelection));

    /* Configure the USART2 clock source */
    __HAL_RCC_USART2_CONFIG(PeriphClkInit->Usart2ClockSelection);
 8001f10:	250c      	movs	r5, #12
 8001f12:	4968      	ldr	r1, [pc, #416]	@ (80020b4 <HAL_RCCEx_PeriphCLKConfig+0x270>)
 8001f14:	6d4a      	ldr	r2, [r1, #84]	@ 0x54
 8001f16:	43aa      	bics	r2, r5
 8001f18:	68a5      	ldr	r5, [r4, #8]
 8001f1a:	432a      	orrs	r2, r5
 8001f1c:	654a      	str	r2, [r1, #84]	@ 0x54
  }
#endif /* RCC_CCIPR_USART2SEL */

#if defined(RCC_CCIPR_USART3SEL)
  /*-------------------------- USART3 clock source configuration -------------------*/
  if (((PeriphClkInit->PeriphClockSelection) & RCC_PERIPHCLK_USART3) == RCC_PERIPHCLK_USART3)
 8001f1e:	075a      	lsls	r2, r3, #29
 8001f20:	d506      	bpl.n	8001f30 <HAL_RCCEx_PeriphCLKConfig+0xec>
  {
    /* Check the parameters */
    assert_param(IS_RCC_USART3CLKSOURCE(PeriphClkInit->Usart3ClockSelection));

    /* Configure the USART3 clock source */
    __HAL_RCC_USART3_CONFIG(PeriphClkInit->Usart3ClockSelection);
 8001f22:	2530      	movs	r5, #48	@ 0x30
 8001f24:	4963      	ldr	r1, [pc, #396]	@ (80020b4 <HAL_RCCEx_PeriphCLKConfig+0x270>)
 8001f26:	6d4a      	ldr	r2, [r1, #84]	@ 0x54
 8001f28:	43aa      	bics	r2, r5
 8001f2a:	68e5      	ldr	r5, [r4, #12]
 8001f2c:	432a      	orrs	r2, r5
 8001f2e:	654a      	str	r2, [r1, #84]	@ 0x54
  }
#endif /* RCC_CCIPR_USART3SEL */

#if defined(LPUART1)
  /*-------------------------- LPUART1 clock source configuration ------------------*/
  if (((PeriphClkInit->PeriphClockSelection) & RCC_PERIPHCLK_LPUART1) == RCC_PERIPHCLK_LPUART1)
 8001f30:	06da      	lsls	r2, r3, #27
 8001f32:	d506      	bpl.n	8001f42 <HAL_RCCEx_PeriphCLKConfig+0xfe>
  {
    /* Check the parameters */
    assert_param(IS_RCC_LPUART1CLKSOURCE(PeriphClkInit->Lpuart1ClockSelection));

    /* Configure the LPUART1 clock source */
    __HAL_RCC_LPUART1_CONFIG(PeriphClkInit->Lpuart1ClockSelection);
 8001f34:	495f      	ldr	r1, [pc, #380]	@ (80020b4 <HAL_RCCEx_PeriphCLKConfig+0x270>)
 8001f36:	4d64      	ldr	r5, [pc, #400]	@ (80020c8 <HAL_RCCEx_PeriphCLKConfig+0x284>)
 8001f38:	6d4a      	ldr	r2, [r1, #84]	@ 0x54
 8001f3a:	402a      	ands	r2, r5
 8001f3c:	6925      	ldr	r5, [r4, #16]
 8001f3e:	432a      	orrs	r2, r5
 8001f40:	654a      	str	r2, [r1, #84]	@ 0x54
  }
#endif /* LPUART1 */

#if defined(LPUART2)
  /*-------------------------- LPUART2 clock source configuration ------------------*/
  if (((PeriphClkInit->PeriphClockSelection) & RCC_PERIPHCLK_LPUART2) == RCC_PERIPHCLK_LPUART2)
 8001f42:	04da      	lsls	r2, r3, #19
 8001f44:	d506      	bpl.n	8001f54 <HAL_RCCEx_PeriphCLKConfig+0x110>
  {
    /* Check the parameters */
    assert_param(IS_RCC_LPUART2CLKSOURCE(PeriphClkInit->Lpuart2ClockSelection));

    /* Configure the LPUART clock source */
    __HAL_RCC_LPUART2_CONFIG(PeriphClkInit->Lpuart2ClockSelection);
 8001f46:	495b      	ldr	r1, [pc, #364]	@ (80020b4 <HAL_RCCEx_PeriphCLKConfig+0x270>)
 8001f48:	4d5c      	ldr	r5, [pc, #368]	@ (80020bc <HAL_RCCEx_PeriphCLKConfig+0x278>)
 8001f4a:	6d4a      	ldr	r2, [r1, #84]	@ 0x54
 8001f4c:	402a      	ands	r2, r5
 8001f4e:	6965      	ldr	r5, [r4, #20]
 8001f50:	432a      	orrs	r2, r5
 8001f52:	654a      	str	r2, [r1, #84]	@ 0x54
  }
#endif /* LPUART2 */

#if defined(RCC_CCIPR_LPTIM1SEL)
  /*-------------------------- LPTIM1 clock source configuration -------------------*/
  if (((PeriphClkInit->PeriphClockSelection) & RCC_PERIPHCLK_LPTIM1) == (RCC_PERIPHCLK_LPTIM1))
 8001f54:	059a      	lsls	r2, r3, #22
 8001f56:	d506      	bpl.n	8001f66 <HAL_RCCEx_PeriphCLKConfig+0x122>
  {
    assert_param(IS_RCC_LPTIM1CLKSOURCE(PeriphClkInit->Lptim1ClockSelection));
    __HAL_RCC_LPTIM1_CONFIG(PeriphClkInit->Lptim1ClockSelection);
 8001f58:	4956      	ldr	r1, [pc, #344]	@ (80020b4 <HAL_RCCEx_PeriphCLKConfig+0x270>)
 8001f5a:	4d5c      	ldr	r5, [pc, #368]	@ (80020cc <HAL_RCCEx_PeriphCLKConfig+0x288>)
 8001f5c:	6d4a      	ldr	r2, [r1, #84]	@ 0x54
 8001f5e:	402a      	ands	r2, r5
 8001f60:	6aa5      	ldr	r5, [r4, #40]	@ 0x28
 8001f62:	432a      	orrs	r2, r5
 8001f64:	654a      	str	r2, [r1, #84]	@ 0x54
  }
#endif /* RCC_CCIPR_LPTIM1SEL */

#if defined(RCC_CCIPR_LPTIM2SEL)
  /*-------------------------- LPTIM2 clock source configuration -------------------*/
  if (((PeriphClkInit->PeriphClockSelection) & RCC_PERIPHCLK_LPTIM2) == (RCC_PERIPHCLK_LPTIM2))
 8001f66:	055a      	lsls	r2, r3, #21
 8001f68:	d506      	bpl.n	8001f78 <HAL_RCCEx_PeriphCLKConfig+0x134>
  {
    assert_param(IS_RCC_LPTIM2CLKSOURCE(PeriphClkInit->Lptim2ClockSelection));
    __HAL_RCC_LPTIM2_CONFIG(PeriphClkInit->Lptim2ClockSelection);
 8001f6a:	4952      	ldr	r1, [pc, #328]	@ (80020b4 <HAL_RCCEx_PeriphCLKConfig+0x270>)
 8001f6c:	4d58      	ldr	r5, [pc, #352]	@ (80020d0 <HAL_RCCEx_PeriphCLKConfig+0x28c>)
 8001f6e:	6d4a      	ldr	r2, [r1, #84]	@ 0x54
 8001f70:	402a      	ands	r2, r5
 8001f72:	6ae5      	ldr	r5, [r4, #44]	@ 0x2c
 8001f74:	432a      	orrs	r2, r5
 8001f76:	654a      	str	r2, [r1, #84]	@ 0x54
  }
#endif /* RCC_CCIPR_LPTIM2SEL */

  /*-------------------------- I2C1 clock source configuration ---------------------*/
  if (((PeriphClkInit->PeriphClockSelection) & RCC_PERIPHCLK_I2C1) == RCC_PERIPHCLK_I2C1)
 8001f78:	069a      	lsls	r2, r3, #26
 8001f7a:	d506      	bpl.n	8001f8a <HAL_RCCEx_PeriphCLKConfig+0x146>
  {
    /* Check the parameters */
    assert_param(IS_RCC_I2C1CLKSOURCE(PeriphClkInit->I2c1ClockSelection));

    /* Configure the I2C1 clock source */
    __HAL_RCC_I2C1_CONFIG(PeriphClkInit->I2c1ClockSelection);
 8001f7c:	494d      	ldr	r1, [pc, #308]	@ (80020b4 <HAL_RCCEx_PeriphCLKConfig+0x270>)
 8001f7e:	4d55      	ldr	r5, [pc, #340]	@ (80020d4 <HAL_RCCEx_PeriphCLKConfig+0x290>)
 8001f80:	6d4a      	ldr	r2, [r1, #84]	@ 0x54
 8001f82:	402a      	ands	r2, r5
 8001f84:	69a5      	ldr	r5, [r4, #24]
 8001f86:	432a      	orrs	r2, r5
 8001f88:	654a      	str	r2, [r1, #84]	@ 0x54
  }

#if defined(RCC_CCIPR_I2C2SEL)
  /*-------------------------- I2C2 clock source configuration ---------------------*/
  if (((PeriphClkInit->PeriphClockSelection) & RCC_PERIPHCLK_I2C2) == RCC_PERIPHCLK_I2C2)
 8001f8a:	065a      	lsls	r2, r3, #25
 8001f8c:	d506      	bpl.n	8001f9c <HAL_RCCEx_PeriphCLKConfig+0x158>
  {
    /* Check the parameters */
    assert_param(IS_RCC_I2C2CLKSOURCE(PeriphClkInit->I2c2ClockSelection));

    /* Configure the I2C2 clock source */
    __HAL_RCC_I2C2_CONFIG(PeriphClkInit->I2c2ClockSelection);
 8001f8e:	4949      	ldr	r1, [pc, #292]	@ (80020b4 <HAL_RCCEx_PeriphCLKConfig+0x270>)
 8001f90:	4d51      	ldr	r5, [pc, #324]	@ (80020d8 <HAL_RCCEx_PeriphCLKConfig+0x294>)
 8001f92:	6d4a      	ldr	r2, [r1, #84]	@ 0x54
 8001f94:	402a      	ands	r2, r5
 8001f96:	69e5      	ldr	r5, [r4, #28]
 8001f98:	432a      	orrs	r2, r5
 8001f9a:	654a      	str	r2, [r1, #84]	@ 0x54
      __HAL_RCC_PLLCLKOUT_ENABLE(RCC_PLLQCLK);
    }
  }
#endif /* RNG */
  /*-------------------------- ADC clock source configuration ----------------------*/
  if (((PeriphClkInit->PeriphClockSelection) & RCC_PERIPHCLK_ADC) == RCC_PERIPHCLK_ADC)
 8001f9c:	045a      	lsls	r2, r3, #17
 8001f9e:	d50f      	bpl.n	8001fc0 <HAL_RCCEx_PeriphCLKConfig+0x17c>
  {
    /* Check the parameters */
    assert_param(IS_RCC_ADCCLKSOURCE(PeriphClkInit->AdcClockSelection));

    /* Configure the ADC interface clock source */
    __HAL_RCC_ADC_CONFIG(PeriphClkInit->AdcClockSelection);
 8001fa0:	4944      	ldr	r1, [pc, #272]	@ (80020b4 <HAL_RCCEx_PeriphCLKConfig+0x270>)
 8001fa2:	6b25      	ldr	r5, [r4, #48]	@ 0x30
 8001fa4:	6d4a      	ldr	r2, [r1, #84]	@ 0x54
 8001fa6:	0092      	lsls	r2, r2, #2
 8001fa8:	0892      	lsrs	r2, r2, #2
 8001faa:	432a      	orrs	r2, r5
 8001fac:	654a      	str	r2, [r1, #84]	@ 0x54

    if (PeriphClkInit->AdcClockSelection == RCC_ADCCLKSOURCE_PLLADC)
 8001fae:	2280      	movs	r2, #128	@ 0x80
 8001fb0:	05d2      	lsls	r2, r2, #23
 8001fb2:	4295      	cmp	r5, r2
 8001fb4:	d104      	bne.n	8001fc0 <HAL_RCCEx_PeriphCLKConfig+0x17c>
    {
      /* Enable PLLPCLK output */
      __HAL_RCC_PLLCLKOUT_ENABLE(RCC_PLLPCLK);
 8001fb6:	2280      	movs	r2, #128	@ 0x80
 8001fb8:	68cd      	ldr	r5, [r1, #12]
 8001fba:	0252      	lsls	r2, r2, #9
 8001fbc:	432a      	orrs	r2, r5
 8001fbe:	60ca      	str	r2, [r1, #12]
    }
  }

#if defined(CEC)
  /*-------------------------- CEC clock source configuration ---------------------*/
  if (((PeriphClkInit->PeriphClockSelection) & RCC_PERIPHCLK_CEC) == RCC_PERIPHCLK_CEC)
 8001fc0:	031a      	lsls	r2, r3, #12
 8001fc2:	d506      	bpl.n	8001fd2 <HAL_RCCEx_PeriphCLKConfig+0x18e>
  {
    /* Check the parameters */
    assert_param(IS_RCC_CECCLKSOURCE(PeriphClkInit->CecClockSelection));

    /* Configure the CEC clock source */
    __HAL_RCC_CEC_CONFIG(PeriphClkInit->CecClockSelection);
 8001fc4:	2540      	movs	r5, #64	@ 0x40
 8001fc6:	493b      	ldr	r1, [pc, #236]	@ (80020b4 <HAL_RCCEx_PeriphCLKConfig+0x270>)
 8001fc8:	6d4a      	ldr	r2, [r1, #84]	@ 0x54
 8001fca:	43aa      	bics	r2, r5
 8001fcc:	6b65      	ldr	r5, [r4, #52]	@ 0x34
 8001fce:	432a      	orrs	r2, r5
 8001fd0:	654a      	str	r2, [r1, #84]	@ 0x54
  }
#endif /* CEC */

#if defined(RCC_CCIPR_TIM1SEL)
  /*-------------------------- TIM1 clock source configuration ---------------------*/
  if (((PeriphClkInit->PeriphClockSelection) & RCC_PERIPHCLK_TIM1) == RCC_PERIPHCLK_TIM1)
 8001fd2:	029a      	lsls	r2, r3, #10
 8001fd4:	d50f      	bpl.n	8001ff6 <HAL_RCCEx_PeriphCLKConfig+0x1b2>
  {
    /* Check the parameters */
    assert_param(IS_RCC_TIM1CLKSOURCE(PeriphClkInit->Tim1ClockSelection));

    /* Configure the TIM1 clock source */
    __HAL_RCC_TIM1_CONFIG(PeriphClkInit->Tim1ClockSelection);
 8001fd6:	4937      	ldr	r1, [pc, #220]	@ (80020b4 <HAL_RCCEx_PeriphCLKConfig+0x270>)
 8001fd8:	4e40      	ldr	r6, [pc, #256]	@ (80020dc <HAL_RCCEx_PeriphCLKConfig+0x298>)
 8001fda:	6d4a      	ldr	r2, [r1, #84]	@ 0x54
 8001fdc:	6ba5      	ldr	r5, [r4, #56]	@ 0x38
 8001fde:	4032      	ands	r2, r6
 8001fe0:	432a      	orrs	r2, r5
 8001fe2:	654a      	str	r2, [r1, #84]	@ 0x54

    if (PeriphClkInit->Tim1ClockSelection == RCC_TIM1CLKSOURCE_PLL)
 8001fe4:	2280      	movs	r2, #128	@ 0x80
 8001fe6:	03d2      	lsls	r2, r2, #15
 8001fe8:	4295      	cmp	r5, r2
 8001fea:	d104      	bne.n	8001ff6 <HAL_RCCEx_PeriphCLKConfig+0x1b2>
    {
      /* Enable PLLQCLK output */
      __HAL_RCC_PLLCLKOUT_ENABLE(RCC_PLLQCLK);
 8001fec:	2280      	movs	r2, #128	@ 0x80
 8001fee:	68cd      	ldr	r5, [r1, #12]
 8001ff0:	0452      	lsls	r2, r2, #17
 8001ff2:	432a      	orrs	r2, r5
 8001ff4:	60ca      	str	r2, [r1, #12]
  }
#endif /* RCC_CCIPR_TIM1SEL */

#if defined(RCC_CCIPR_TIM15SEL)
  /*-------------------------- TIM15 clock source configuration ---------------------*/
  if (((PeriphClkInit->PeriphClockSelection) & RCC_PERIPHCLK_TIM15) == RCC_PERIPHCLK_TIM15)
 8001ff6:	025a      	lsls	r2, r3, #9
 8001ff8:	d50d      	bpl.n	8002016 <HAL_RCCEx_PeriphCLKConfig+0x1d2>
  {
    /* Check the parameters */
    assert_param(IS_RCC_TIM15CLKSOURCE(PeriphClkInit->Tim15ClockSelection));

    /* Configure the TIM15 clock source */
    __HAL_RCC_TIM15_CONFIG(PeriphClkInit->Tim15ClockSelection);
 8001ffa:	4d2e      	ldr	r5, [pc, #184]	@ (80020b4 <HAL_RCCEx_PeriphCLKConfig+0x270>)
 8001ffc:	4e38      	ldr	r6, [pc, #224]	@ (80020e0 <HAL_RCCEx_PeriphCLKConfig+0x29c>)
 8001ffe:	6d69      	ldr	r1, [r5, #84]	@ 0x54
 8002000:	6be2      	ldr	r2, [r4, #60]	@ 0x3c
 8002002:	4031      	ands	r1, r6
 8002004:	4311      	orrs	r1, r2
 8002006:	6569      	str	r1, [r5, #84]	@ 0x54

    if (PeriphClkInit->Tim15ClockSelection == RCC_TIM15CLKSOURCE_PLL)
 8002008:	2180      	movs	r1, #128	@ 0x80
 800200a:	0449      	lsls	r1, r1, #17
 800200c:	428a      	cmp	r2, r1
 800200e:	d102      	bne.n	8002016 <HAL_RCCEx_PeriphCLKConfig+0x1d2>
    {
      /* Enable PLLQCLK output */
      __HAL_RCC_PLLCLKOUT_ENABLE(RCC_PLLQCLK);
 8002010:	68e9      	ldr	r1, [r5, #12]
 8002012:	430a      	orrs	r2, r1
 8002014:	60ea      	str	r2, [r5, #12]
    }
  }
#endif /* RCC_CCIPR_TIM15SEL */

  /*-------------------------- I2S1 clock source configuration ---------------------*/
  if (((PeriphClkInit->PeriphClockSelection) & RCC_PERIPHCLK_I2S1) == RCC_PERIPHCLK_I2S1)
 8002016:	051a      	lsls	r2, r3, #20
 8002018:	d50d      	bpl.n	8002036 <HAL_RCCEx_PeriphCLKConfig+0x1f2>
  {
    /* Check the parameters */
    assert_param(IS_RCC_I2S1CLKSOURCE(PeriphClkInit->I2s1ClockSelection));

    /* Configure the I2S1 clock source */
    __HAL_RCC_I2S1_CONFIG(PeriphClkInit->I2s1ClockSelection);
 800201a:	2603      	movs	r6, #3
 800201c:	4925      	ldr	r1, [pc, #148]	@ (80020b4 <HAL_RCCEx_PeriphCLKConfig+0x270>)
 800201e:	6a25      	ldr	r5, [r4, #32]
 8002020:	6d8a      	ldr	r2, [r1, #88]	@ 0x58
 8002022:	43b2      	bics	r2, r6
 8002024:	432a      	orrs	r2, r5
 8002026:	658a      	str	r2, [r1, #88]	@ 0x58

    if (PeriphClkInit->I2s1ClockSelection == RCC_I2S1CLKSOURCE_PLL)
 8002028:	2d01      	cmp	r5, #1
 800202a:	d104      	bne.n	8002036 <HAL_RCCEx_PeriphCLKConfig+0x1f2>
    {
      /* Enable PLLPCLK output */
      __HAL_RCC_PLLCLKOUT_ENABLE(RCC_PLLPCLK);
 800202c:	2280      	movs	r2, #128	@ 0x80
 800202e:	68cd      	ldr	r5, [r1, #12]
 8002030:	0252      	lsls	r2, r2, #9
 8002032:	432a      	orrs	r2, r5
 8002034:	60ca      	str	r2, [r1, #12]
    }
  }

#if defined(RCC_CCIPR2_I2S2SEL)
  /*-------------------------- I2S2 clock source configuration ---------------------*/
  if (((PeriphClkInit->PeriphClockSelection) & RCC_PERIPHCLK_I2S2) == RCC_PERIPHCLK_I2S2)
 8002036:	049a      	lsls	r2, r3, #18
 8002038:	d50d      	bpl.n	8002056 <HAL_RCCEx_PeriphCLKConfig+0x212>
  {
    /* Check the parameters */
    assert_param(IS_RCC_I2S2CLKSOURCE(PeriphClkInit->I2s2ClockSelection));

    /* Configure the I2S2 clock source */
    __HAL_RCC_I2S2_CONFIG(PeriphClkInit->I2s2ClockSelection);
 800203a:	260c      	movs	r6, #12
 800203c:	491d      	ldr	r1, [pc, #116]	@ (80020b4 <HAL_RCCEx_PeriphCLKConfig+0x270>)
 800203e:	6a65      	ldr	r5, [r4, #36]	@ 0x24
 8002040:	6d8a      	ldr	r2, [r1, #88]	@ 0x58
 8002042:	43b2      	bics	r2, r6
 8002044:	432a      	orrs	r2, r5
 8002046:	658a      	str	r2, [r1, #88]	@ 0x58

    if (PeriphClkInit->I2s2ClockSelection == RCC_I2S2CLKSOURCE_PLL)
 8002048:	2d04      	cmp	r5, #4
 800204a:	d104      	bne.n	8002056 <HAL_RCCEx_PeriphCLKConfig+0x212>
    {
      /* Enable PLLPCLK output */
      __HAL_RCC_PLLCLKOUT_ENABLE(RCC_PLLPCLK);
 800204c:	2280      	movs	r2, #128	@ 0x80
 800204e:	68cd      	ldr	r5, [r1, #12]
 8002050:	0252      	lsls	r2, r2, #9
 8002052:	432a      	orrs	r2, r5
 8002054:	60ca      	str	r2, [r1, #12]
  }
#endif /* RCC_CCIPR2_I2S2SEL */

#if defined(STM32G0C1xx) || defined(STM32G0B1xx)  || defined(STM32G0B0xx)
  /*-------------------------- USB clock source configuration ---------------------*/
  if (((PeriphClkInit->PeriphClockSelection) & RCC_PERIPHCLK_USB) == RCC_PERIPHCLK_USB)
 8002056:	2580      	movs	r5, #128	@ 0x80
 8002058:	046d      	lsls	r5, r5, #17
 800205a:	422b      	tst	r3, r5
 800205c:	d00d      	beq.n	800207a <HAL_RCCEx_PeriphCLKConfig+0x236>
  {
    /* Check the parameters */
    assert_param(IS_RCC_USBCLKSOURCE(PeriphClkInit->UsbClockSelection));

    /* Configure the USB clock source */
    __HAL_RCC_USB_CONFIG(PeriphClkInit->UsbClockSelection);
 800205e:	4915      	ldr	r1, [pc, #84]	@ (80020b4 <HAL_RCCEx_PeriphCLKConfig+0x270>)
 8002060:	4f1c      	ldr	r7, [pc, #112]	@ (80020d4 <HAL_RCCEx_PeriphCLKConfig+0x290>)
 8002062:	6d8a      	ldr	r2, [r1, #88]	@ 0x58
 8002064:	6c66      	ldr	r6, [r4, #68]	@ 0x44
 8002066:	403a      	ands	r2, r7
 8002068:	4332      	orrs	r2, r6
 800206a:	658a      	str	r2, [r1, #88]	@ 0x58

    if (PeriphClkInit->UsbClockSelection == RCC_USBCLKSOURCE_PLL)
 800206c:	2280      	movs	r2, #128	@ 0x80
 800206e:	0192      	lsls	r2, r2, #6
 8002070:	4296      	cmp	r6, r2
 8002072:	d102      	bne.n	800207a <HAL_RCCEx_PeriphCLKConfig+0x236>
    {
      /* Enable PLLQCLK output */
      __HAL_RCC_PLLCLKOUT_ENABLE(RCC_PLLQCLK);
 8002074:	68ca      	ldr	r2, [r1, #12]
 8002076:	4315      	orrs	r5, r2
 8002078:	60cd      	str	r5, [r1, #12]
  }
#endif /* STM32G0C1xx || STM32G0B1xx || STM32G0B0xx */

#if defined(FDCAN1) || defined(FDCAN2)
  /*-------------------------- FDCAN clock source configuration ---------------------*/
  if (((PeriphClkInit->PeriphClockSelection) & RCC_PERIPHCLK_FDCAN) == RCC_PERIPHCLK_FDCAN)
 800207a:	019b      	lsls	r3, r3, #6
 800207c:	d50f      	bpl.n	800209e <HAL_RCCEx_PeriphCLKConfig+0x25a>
  {
    /* Check the parameters */
    assert_param(IS_RCC_FDCANCLKSOURCE(PeriphClkInit->FdcanClockSelection));

    /* Configure the FDCAN clock source */
    __HAL_RCC_FDCAN_CONFIG(PeriphClkInit->FdcanClockSelection);
 800207e:	4a0d      	ldr	r2, [pc, #52]	@ (80020b4 <HAL_RCCEx_PeriphCLKConfig+0x270>)
 8002080:	6ca1      	ldr	r1, [r4, #72]	@ 0x48
 8002082:	6d93      	ldr	r3, [r2, #88]	@ 0x58
 8002084:	4c0d      	ldr	r4, [pc, #52]	@ (80020bc <HAL_RCCEx_PeriphCLKConfig+0x278>)
 8002086:	4023      	ands	r3, r4
 8002088:	430b      	orrs	r3, r1
 800208a:	6593      	str	r3, [r2, #88]	@ 0x58

    if (PeriphClkInit->FdcanClockSelection == RCC_FDCANCLKSOURCE_PLL)
 800208c:	2380      	movs	r3, #128	@ 0x80
 800208e:	005b      	lsls	r3, r3, #1
 8002090:	4299      	cmp	r1, r3
 8002092:	d104      	bne.n	800209e <HAL_RCCEx_PeriphCLKConfig+0x25a>
    {
      /* Enable PLLQCLK output */
      __HAL_RCC_PLLCLKOUT_ENABLE(RCC_PLLQCLK);
 8002094:	2380      	movs	r3, #128	@ 0x80
 8002096:	68d1      	ldr	r1, [r2, #12]
 8002098:	045b      	lsls	r3, r3, #17
 800209a:	430b      	orrs	r3, r1
 800209c:	60d3      	str	r3, [r2, #12]
    }
  }
#endif /* FDCAN1 || FDCAN2 */

  return status;
}
 800209e:	b005      	add	sp, #20
 80020a0:	bdf0      	pop	{r4, r5, r6, r7, pc}
          if ((HAL_GetTick() - tickstart) > RCC_LSE_TIMEOUT_VALUE)
 80020a2:	f7fe fc17 	bl	80008d4 <HAL_GetTick>
 80020a6:	4b0f      	ldr	r3, [pc, #60]	@ (80020e4 <HAL_RCCEx_PeriphCLKConfig+0x2a0>)
 80020a8:	1bc0      	subs	r0, r0, r7
 80020aa:	4298      	cmp	r0, r3
 80020ac:	d800      	bhi.n	80020b0 <HAL_RCCEx_PeriphCLKConfig+0x26c>
 80020ae:	e709      	b.n	8001ec4 <HAL_RCCEx_PeriphCLKConfig+0x80>
 80020b0:	e71a      	b.n	8001ee8 <HAL_RCCEx_PeriphCLKConfig+0xa4>
 80020b2:	46c0      	nop			@ (mov r8, r8)
 80020b4:	40021000 	.word	0x40021000
 80020b8:	40007000 	.word	0x40007000
 80020bc:	fffffcff 	.word	0xfffffcff
 80020c0:	fffeffff 	.word	0xfffeffff
 80020c4:	efffffff 	.word	0xefffffff
 80020c8:	fffff3ff 	.word	0xfffff3ff
 80020cc:	fff3ffff 	.word	0xfff3ffff
 80020d0:	ffcfffff 	.word	0xffcfffff
 80020d4:	ffffcfff 	.word	0xffffcfff
 80020d8:	ffff3fff 	.word	0xffff3fff
 80020dc:	ffbfffff 	.word	0xffbfffff
 80020e0:	feffffff 	.word	0xfeffffff
 80020e4:	00001388 	.word	0x00001388

080020e8 <USB_EnableGlobalInt>:
  *         Enables the controller's Global Int in the AHB Config reg
  * @param  USBx Selected device
  * @retval HAL status
  */
HAL_StatusTypeDef USB_EnableGlobalInt(USB_DRD_TypeDef *USBx)
{
 80020e8:	0003      	movs	r3, r0
  uint32_t winterruptmask;

  /* Clear pending interrupts */
  USBx->ISTR = 0U;
 80020ea:	2000      	movs	r0, #0
                   USB_CNTR_SUSPM | USB_CNTR_ERRM |
                   USB_CNTR_SOFM | USB_CNTR_ESOFM |
                   USB_CNTR_RESETM | USB_CNTR_L1REQM;

  /* Set interrupt mask */
  USBx->CNTR = winterruptmask;
 80020ec:	4a01      	ldr	r2, [pc, #4]	@ (80020f4 <USB_EnableGlobalInt+0xc>)
  USBx->ISTR = 0U;
 80020ee:	6458      	str	r0, [r3, #68]	@ 0x44
  USBx->CNTR = winterruptmask;
 80020f0:	641a      	str	r2, [r3, #64]	@ 0x40

  return HAL_OK;
}
 80020f2:	4770      	bx	lr
 80020f4:	0000bf80 	.word	0x0000bf80

080020f8 <USB_DisableGlobalInt>:
                   USB_CNTR_SUSPM | USB_CNTR_ERRM |
                   USB_CNTR_SOFM | USB_CNTR_ESOFM |
                   USB_CNTR_RESETM | USB_CNTR_L1REQM;

  /* Clear interrupt mask */
  USBx->CNTR &= ~winterruptmask;
 80020f8:	6c03      	ldr	r3, [r0, #64]	@ 0x40
 80020fa:	4a02      	ldr	r2, [pc, #8]	@ (8002104 <USB_DisableGlobalInt+0xc>)
 80020fc:	4013      	ands	r3, r2
 80020fe:	6403      	str	r3, [r0, #64]	@ 0x40

  return HAL_OK;
}
 8002100:	2000      	movs	r0, #0
 8002102:	4770      	bx	lr
 8002104:	ffff407f 	.word	0xffff407f

08002108 <USB_DevInit>:
  * @param  cfg  pointer to a USB_DRD_CfgTypeDef structure that contains
  *         the configuration information for the specified USBx peripheral.
  * @retval HAL status
  */
HAL_StatusTypeDef USB_DevInit(USB_DRD_TypeDef *USBx, USB_DRD_CfgTypeDef cfg)
{
 8002108:	b084      	sub	sp, #16
 800210a:	b510      	push	{r4, lr}
 800210c:	9204      	str	r2, [sp, #16]

  /* Prevent unused argument(s) compilation warning */
  UNUSED(cfg);

  /* Force Reset */
  USBx->CNTR = USB_CNTR_USBRST;
 800210e:	2201      	movs	r2, #1
 8002110:	6402      	str	r2, [r0, #64]	@ 0x40
{
 8002112:	9305      	str	r3, [sp, #20]

  /* Release Reset */
  USBx->CNTR &= ~USB_CNTR_USBRST;
 8002114:	6c03      	ldr	r3, [r0, #64]	@ 0x40
{
 8002116:	0004      	movs	r4, r0
  USBx->CNTR &= ~USB_CNTR_USBRST;
 8002118:	4393      	bics	r3, r2
 800211a:	6403      	str	r3, [r0, #64]	@ 0x40
    USBx->CNTR &= ~USB_CNTR_HOST;
 800211c:	6c03      	ldr	r3, [r0, #64]	@ 0x40
{
 800211e:	9103      	str	r1, [sp, #12]
    USBx->CNTR &= ~USB_CNTR_HOST;
 8002120:	4093      	lsls	r3, r2
 8002122:	40d3      	lsrs	r3, r2
 8002124:	6403      	str	r3, [r0, #64]	@ 0x40

  /* Set the Device Mode */
  ret = USB_SetCurrentMode(USBx, USB_DEVICE_MODE);

  /* Clear pending interrupts */
  USBx->ISTR = 0U;
 8002126:	2000      	movs	r0, #0
 8002128:	6460      	str	r0, [r4, #68]	@ 0x44

  return ret;
}
 800212a:	bc10      	pop	{r4}
 800212c:	bc08      	pop	{r3}
 800212e:	b004      	add	sp, #16
 8002130:	4718      	bx	r3
	...

08002134 <USB_ActivateEndpoint>:
  * @param  USBx Selected device
  * @param  ep pointer to endpoint structure
  * @retval HAL status
  */
HAL_StatusTypeDef USB_ActivateEndpoint(USB_DRD_TypeDef *USBx, USB_DRD_EPTypeDef *ep)
{
 8002134:	b5f7      	push	{r0, r1, r2, r4, r5, r6, r7, lr}
    case EP_TYPE_ISOC:
      wEpRegVal |= USB_EP_ISOCHRONOUS;
      break;

    default:
      ret = HAL_ERROR;
 8002136:	2401      	movs	r4, #1
  wEpRegVal = PCD_GET_ENDPOINT(USBx, ep->num) & USB_EP_T_MASK;
 8002138:	780e      	ldrb	r6, [r1, #0]
 800213a:	00b3      	lsls	r3, r6, #2
 800213c:	18c3      	adds	r3, r0, r3
 800213e:	681a      	ldr	r2, [r3, #0]
 8002140:	4896      	ldr	r0, [pc, #600]	@ (800239c <USB_ActivateEndpoint+0x268>)
 8002142:	4002      	ands	r2, r0
  switch (ep->type)
 8002144:	78c8      	ldrb	r0, [r1, #3]
      ret = HAL_ERROR;
 8002146:	9400      	str	r4, [sp, #0]
  switch (ep->type)
 8002148:	2803      	cmp	r0, #3
 800214a:	d807      	bhi.n	800215c <USB_ActivateEndpoint+0x28>
 800214c:	f7fd ffec 	bl	8000128 <__gnu_thumb1_case_uqi>
 8002150:	34373a02 	.word	0x34373a02
      wEpRegVal |= USB_EP_CONTROL;
 8002154:	2480      	movs	r4, #128	@ 0x80
 8002156:	00a4      	lsls	r4, r4, #2
 8002158:	4322      	orrs	r2, r4
  HAL_StatusTypeDef ret = HAL_OK;
 800215a:	9000      	str	r0, [sp, #0]
      break;
  }

  PCD_SET_ENDPOINT(USBx, ep->num, (wEpRegVal | USB_EP_VTRX | USB_EP_VTTX));
 800215c:	4c90      	ldr	r4, [pc, #576]	@ (80023a0 <USB_ActivateEndpoint+0x26c>)

  PCD_SET_EP_ADDRESS(USBx, ep->num, ep->num);
 800215e:	4d91      	ldr	r5, [pc, #580]	@ (80023a4 <USB_ActivateEndpoint+0x270>)
  PCD_SET_ENDPOINT(USBx, ep->num, (wEpRegVal | USB_EP_VTRX | USB_EP_VTTX));
 8002160:	4322      	orrs	r2, r4
 8002162:	601a      	str	r2, [r3, #0]
  PCD_SET_EP_ADDRESS(USBx, ep->num, ep->num);
 8002164:	681a      	ldr	r2, [r3, #0]
  if (ep->doublebuffer == 0U)
  {
    if (ep->is_in != 0U)
    {
      /*Set the endpoint Transmit buffer address */
      PCD_SET_EP_TX_ADDRESS(USBx, ep->num, ep->pmaadress);
 8002166:	4f90      	ldr	r7, [pc, #576]	@ (80023a8 <USB_ActivateEndpoint+0x274>)
  PCD_SET_EP_ADDRESS(USBx, ep->num, ep->num);
 8002168:	402a      	ands	r2, r5
 800216a:	4332      	orrs	r2, r6
 800216c:	4322      	orrs	r2, r4
 800216e:	601a      	str	r2, [r3, #0]
      PCD_SET_EP_TX_ADDRESS(USBx, ep->num, ep->pmaadress);
 8002170:	00f2      	lsls	r2, r6, #3
 8002172:	19d2      	adds	r2, r2, r7
  if (ep->doublebuffer == 0U)
 8002174:	7b0f      	ldrb	r7, [r1, #12]
 8002176:	2f00      	cmp	r7, #0
 8002178:	d166      	bne.n	8002248 <USB_ActivateEndpoint+0x114>
      PCD_SET_EP_TX_ADDRESS(USBx, ep->num, ep->pmaadress);
 800217a:	88cf      	ldrh	r7, [r1, #6]
 800217c:	08bf      	lsrs	r7, r7, #2
 800217e:	00bf      	lsls	r7, r7, #2
 8002180:	9701      	str	r7, [sp, #4]
    if (ep->is_in != 0U)
 8002182:	784f      	ldrb	r7, [r1, #1]
 8002184:	2f00      	cmp	r7, #0
 8002186:	d025      	beq.n	80021d4 <USB_ActivateEndpoint+0xa0>
      PCD_SET_EP_TX_ADDRESS(USBx, ep->num, ep->pmaadress);
 8002188:	6811      	ldr	r1, [r2, #0]
 800218a:	9e01      	ldr	r6, [sp, #4]
 800218c:	0c09      	lsrs	r1, r1, #16
 800218e:	0409      	lsls	r1, r1, #16
 8002190:	6011      	str	r1, [r2, #0]
 8002192:	6811      	ldr	r1, [r2, #0]
 8002194:	4331      	orrs	r1, r6
 8002196:	6011      	str	r1, [r2, #0]
      PCD_CLEAR_TX_DTOG(USBx, ep->num);
 8002198:	681a      	ldr	r2, [r3, #0]
 800219a:	0652      	lsls	r2, r2, #25
 800219c:	d504      	bpl.n	80021a8 <USB_ActivateEndpoint+0x74>
 800219e:	6819      	ldr	r1, [r3, #0]
 80021a0:	4a82      	ldr	r2, [pc, #520]	@ (80023ac <USB_ActivateEndpoint+0x278>)
 80021a2:	4029      	ands	r1, r5
 80021a4:	430a      	orrs	r2, r1
 80021a6:	601a      	str	r2, [r3, #0]

      if (ep->type != EP_TYPE_ISOC)
 80021a8:	4d81      	ldr	r5, [pc, #516]	@ (80023b0 <USB_ActivateEndpoint+0x27c>)
 80021aa:	2801      	cmp	r0, #1
 80021ac:	d00c      	beq.n	80021c8 <USB_ActivateEndpoint+0x94>
      {
        /* Configure NAK status for the Endpoint */
        PCD_SET_EP_TX_STATUS(USBx, ep->num, USB_EP_TX_NAK);
 80021ae:	2220      	movs	r2, #32
 80021b0:	6819      	ldr	r1, [r3, #0]
 80021b2:	4029      	ands	r1, r5
        PCD_SET_EP_RX_STATUS(USBx, ep->num, USB_EP_RX_VALID);
      }
      else
      {
        /* Configure NAK status for OUT Endpoint */
        PCD_SET_EP_RX_STATUS(USBx, ep->num, USB_EP_RX_NAK);
 80021b4:	404a      	eors	r2, r1
 80021b6:	e009      	b.n	80021cc <USB_ActivateEndpoint+0x98>
      wEpRegVal |= USB_EP_INTERRUPT;
 80021b8:	24c0      	movs	r4, #192	@ 0xc0
      wEpRegVal |= USB_EP_ISOCHRONOUS;
 80021ba:	00e4      	lsls	r4, r4, #3
 80021bc:	4322      	orrs	r2, r4
  switch (ep->type)
 80021be:	2400      	movs	r4, #0
 80021c0:	9400      	str	r4, [sp, #0]
 80021c2:	e7cb      	b.n	800215c <USB_ActivateEndpoint+0x28>
      wEpRegVal |= USB_EP_ISOCHRONOUS;
 80021c4:	2480      	movs	r4, #128	@ 0x80
 80021c6:	e7f8      	b.n	80021ba <USB_ActivateEndpoint+0x86>
        PCD_SET_EP_TX_STATUS(USBx, ep->num, USB_EP_TX_DIS);
 80021c8:	681a      	ldr	r2, [r3, #0]
 80021ca:	402a      	ands	r2, r5
        PCD_SET_EP_RX_STATUS(USBx, ep->num, USB_EP_RX_NAK);
 80021cc:	4322      	orrs	r2, r4
 80021ce:	601a      	str	r2, [r3, #0]
    }
  }
#endif /* (USE_USB_DOUBLE_BUFFER == 1U) */

  return ret;
}
 80021d0:	9800      	ldr	r0, [sp, #0]
 80021d2:	bdfe      	pop	{r1, r2, r3, r4, r5, r6, r7, pc}
      PCD_SET_EP_RX_ADDRESS(USBx, ep->num, ep->pmaadress);
 80021d4:	6850      	ldr	r0, [r2, #4]
 80021d6:	9f01      	ldr	r7, [sp, #4]
 80021d8:	0c00      	lsrs	r0, r0, #16
 80021da:	0400      	lsls	r0, r0, #16
 80021dc:	6050      	str	r0, [r2, #4]
 80021de:	6850      	ldr	r0, [r2, #4]
      PCD_SET_EP_RX_CNT(USBx, ep->num, ep->maxpacket);
 80021e0:	6909      	ldr	r1, [r1, #16]
      PCD_SET_EP_RX_ADDRESS(USBx, ep->num, ep->pmaadress);
 80021e2:	4338      	orrs	r0, r7
 80021e4:	6050      	str	r0, [r2, #4]
      PCD_SET_EP_RX_CNT(USBx, ep->num, ep->maxpacket);
 80021e6:	6850      	ldr	r0, [r2, #4]
 80021e8:	0180      	lsls	r0, r0, #6
 80021ea:	0980      	lsrs	r0, r0, #6
 80021ec:	6050      	str	r0, [r2, #4]
 80021ee:	2900      	cmp	r1, #0
 80021f0:	d105      	bne.n	80021fe <USB_ActivateEndpoint+0xca>
 80021f2:	6850      	ldr	r0, [r2, #4]
 80021f4:	2180      	movs	r1, #128	@ 0x80
 80021f6:	0609      	lsls	r1, r1, #24
 80021f8:	4301      	orrs	r1, r0
 80021fa:	6051      	str	r1, [r2, #4]
 80021fc:	e009      	b.n	8002212 <USB_ActivateEndpoint+0xde>
 80021fe:	293e      	cmp	r1, #62	@ 0x3e
 8002200:	d818      	bhi.n	8002234 <USB_ActivateEndpoint+0x100>
 8002202:	2701      	movs	r7, #1
 8002204:	0848      	lsrs	r0, r1, #1
 8002206:	4039      	ands	r1, r7
 8002208:	1840      	adds	r0, r0, r1
 800220a:	6851      	ldr	r1, [r2, #4]
 800220c:	0680      	lsls	r0, r0, #26
 800220e:	4308      	orrs	r0, r1
 8002210:	6050      	str	r0, [r2, #4]
      PCD_CLEAR_RX_DTOG(USBx, ep->num);
 8002212:	681a      	ldr	r2, [r3, #0]
 8002214:	0452      	lsls	r2, r2, #17
 8002216:	d504      	bpl.n	8002222 <USB_ActivateEndpoint+0xee>
 8002218:	6819      	ldr	r1, [r3, #0]
 800221a:	4a66      	ldr	r2, [pc, #408]	@ (80023b4 <USB_ActivateEndpoint+0x280>)
 800221c:	4029      	ands	r1, r5
 800221e:	430a      	orrs	r2, r1
 8002220:	601a      	str	r2, [r3, #0]
      if (ep->num == 0U)
 8002222:	4a65      	ldr	r2, [pc, #404]	@ (80023b8 <USB_ActivateEndpoint+0x284>)
        PCD_SET_EP_RX_STATUS(USBx, ep->num, USB_EP_RX_VALID);
 8002224:	6819      	ldr	r1, [r3, #0]
 8002226:	4011      	ands	r1, r2
 8002228:	22c0      	movs	r2, #192	@ 0xc0
      if (ep->num == 0U)
 800222a:	2e00      	cmp	r6, #0
 800222c:	d000      	beq.n	8002230 <USB_ActivateEndpoint+0xfc>
        PCD_SET_EP_RX_STATUS(USBx, ep->num, USB_EP_RX_NAK);
 800222e:	2280      	movs	r2, #128	@ 0x80
 8002230:	0192      	lsls	r2, r2, #6
 8002232:	e7bf      	b.n	80021b4 <USB_ActivateEndpoint+0x80>
      PCD_SET_EP_RX_CNT(USBx, ep->num, ep->maxpacket);
 8002234:	271f      	movs	r7, #31
 8002236:	0948      	lsrs	r0, r1, #5
 8002238:	4039      	ands	r1, r7
 800223a:	424f      	negs	r7, r1
 800223c:	4179      	adcs	r1, r7
 800223e:	1a40      	subs	r0, r0, r1
 8002240:	6851      	ldr	r1, [r2, #4]
 8002242:	0680      	lsls	r0, r0, #26
 8002244:	4308      	orrs	r0, r1
 8002246:	e7d5      	b.n	80021f4 <USB_ActivateEndpoint+0xc0>
    if (ep->type == EP_TYPE_BULK)
 8002248:	2802      	cmp	r0, #2
 800224a:	d14a      	bne.n	80022e2 <USB_ActivateEndpoint+0x1ae>
      PCD_SET_BULK_EP_DBUF(USBx, ep->num);
 800224c:	681f      	ldr	r7, [r3, #0]
 800224e:	4e5b      	ldr	r6, [pc, #364]	@ (80023bc <USB_ActivateEndpoint+0x288>)
 8002250:	402f      	ands	r7, r5
 8002252:	433e      	orrs	r6, r7
      PCD_CLEAR_EP_KIND(USBx, ep->num);
 8002254:	601e      	str	r6, [r3, #0]
    PCD_SET_EP_DBUF_ADDR(USBx, ep->num, ep->pmaaddr0, ep->pmaaddr1);
 8002256:	6816      	ldr	r6, [r2, #0]
 8002258:	0c36      	lsrs	r6, r6, #16
 800225a:	0436      	lsls	r6, r6, #16
 800225c:	6016      	str	r6, [r2, #0]
 800225e:	890e      	ldrh	r6, [r1, #8]
 8002260:	6817      	ldr	r7, [r2, #0]
 8002262:	08b6      	lsrs	r6, r6, #2
 8002264:	00b6      	lsls	r6, r6, #2
 8002266:	433e      	orrs	r6, r7
 8002268:	6016      	str	r6, [r2, #0]
 800226a:	6856      	ldr	r6, [r2, #4]
 800226c:	0c36      	lsrs	r6, r6, #16
 800226e:	0436      	lsls	r6, r6, #16
 8002270:	6056      	str	r6, [r2, #4]
 8002272:	894e      	ldrh	r6, [r1, #10]
 8002274:	6857      	ldr	r7, [r2, #4]
 8002276:	08b6      	lsrs	r6, r6, #2
 8002278:	00b6      	lsls	r6, r6, #2
 800227a:	433e      	orrs	r6, r7
 800227c:	6056      	str	r6, [r2, #4]
    if (ep->is_in == 0U)
 800227e:	784e      	ldrb	r6, [r1, #1]
 8002280:	4f4d      	ldr	r7, [pc, #308]	@ (80023b8 <USB_ActivateEndpoint+0x284>)
 8002282:	9601      	str	r6, [sp, #4]
 8002284:	4e4a      	ldr	r6, [pc, #296]	@ (80023b0 <USB_ActivateEndpoint+0x27c>)
 8002286:	46b4      	mov	ip, r6
 8002288:	9e01      	ldr	r6, [sp, #4]
 800228a:	2e00      	cmp	r6, #0
 800228c:	d162      	bne.n	8002354 <USB_ActivateEndpoint+0x220>
      PCD_CLEAR_RX_DTOG(USBx, ep->num);
 800228e:	2680      	movs	r6, #128	@ 0x80
 8002290:	6818      	ldr	r0, [r3, #0]
 8002292:	01f6      	lsls	r6, r6, #7
 8002294:	4230      	tst	r0, r6
 8002296:	d004      	beq.n	80022a2 <USB_ActivateEndpoint+0x16e>
 8002298:	681e      	ldr	r6, [r3, #0]
 800229a:	4846      	ldr	r0, [pc, #280]	@ (80023b4 <USB_ActivateEndpoint+0x280>)
 800229c:	402e      	ands	r6, r5
 800229e:	4330      	orrs	r0, r6
 80022a0:	6018      	str	r0, [r3, #0]
      PCD_CLEAR_TX_DTOG(USBx, ep->num);
 80022a2:	6818      	ldr	r0, [r3, #0]
 80022a4:	0640      	lsls	r0, r0, #25
 80022a6:	d504      	bpl.n	80022b2 <USB_ActivateEndpoint+0x17e>
 80022a8:	6818      	ldr	r0, [r3, #0]
 80022aa:	4005      	ands	r5, r0
 80022ac:	483f      	ldr	r0, [pc, #252]	@ (80023ac <USB_ActivateEndpoint+0x278>)
 80022ae:	4328      	orrs	r0, r5
 80022b0:	6018      	str	r0, [r3, #0]
      PCD_SET_EP_DBUF_CNT(USBx, ep->num, ep->is_in, ep->maxpacket);
 80022b2:	6810      	ldr	r0, [r2, #0]
 80022b4:	6909      	ldr	r1, [r1, #16]
 80022b6:	0180      	lsls	r0, r0, #6
 80022b8:	0980      	lsrs	r0, r0, #6
 80022ba:	6010      	str	r0, [r2, #0]
 80022bc:	2900      	cmp	r1, #0
 80022be:	d115      	bne.n	80022ec <USB_ActivateEndpoint+0x1b8>
 80022c0:	2080      	movs	r0, #128	@ 0x80
 80022c2:	6815      	ldr	r5, [r2, #0]
 80022c4:	0600      	lsls	r0, r0, #24
 80022c6:	4328      	orrs	r0, r5
 80022c8:	6010      	str	r0, [r2, #0]
 80022ca:	6850      	ldr	r0, [r2, #4]
 80022cc:	0180      	lsls	r0, r0, #6
 80022ce:	0980      	lsrs	r0, r0, #6
 80022d0:	6050      	str	r0, [r2, #4]
 80022d2:	2900      	cmp	r1, #0
 80022d4:	d11f      	bne.n	8002316 <USB_ActivateEndpoint+0x1e2>
 80022d6:	6850      	ldr	r0, [r2, #4]
 80022d8:	2180      	movs	r1, #128	@ 0x80
 80022da:	0609      	lsls	r1, r1, #24
 80022dc:	4301      	orrs	r1, r0
 80022de:	6051      	str	r1, [r2, #4]
 80022e0:	e023      	b.n	800232a <USB_ActivateEndpoint+0x1f6>
      PCD_CLEAR_EP_KIND(USBx, ep->num);
 80022e2:	681e      	ldr	r6, [r3, #0]
 80022e4:	4f36      	ldr	r7, [pc, #216]	@ (80023c0 <USB_ActivateEndpoint+0x28c>)
 80022e6:	403e      	ands	r6, r7
 80022e8:	4326      	orrs	r6, r4
 80022ea:	e7b3      	b.n	8002254 <USB_ActivateEndpoint+0x120>
      PCD_SET_EP_DBUF_CNT(USBx, ep->num, ep->is_in, ep->maxpacket);
 80022ec:	293e      	cmp	r1, #62	@ 0x3e
 80022ee:	d806      	bhi.n	80022fe <USB_ActivateEndpoint+0x1ca>
 80022f0:	2501      	movs	r5, #1
 80022f2:	0848      	lsrs	r0, r1, #1
 80022f4:	400d      	ands	r5, r1
 80022f6:	1940      	adds	r0, r0, r5
 80022f8:	0680      	lsls	r0, r0, #26
 80022fa:	6815      	ldr	r5, [r2, #0]
 80022fc:	e7e3      	b.n	80022c6 <USB_ActivateEndpoint+0x192>
 80022fe:	251f      	movs	r5, #31
 8002300:	400d      	ands	r5, r1
 8002302:	426e      	negs	r6, r5
 8002304:	4175      	adcs	r5, r6
 8002306:	0948      	lsrs	r0, r1, #5
 8002308:	1b40      	subs	r0, r0, r5
 800230a:	6815      	ldr	r5, [r2, #0]
 800230c:	0680      	lsls	r0, r0, #26
 800230e:	4328      	orrs	r0, r5
 8002310:	2580      	movs	r5, #128	@ 0x80
 8002312:	062d      	lsls	r5, r5, #24
 8002314:	e7d7      	b.n	80022c6 <USB_ActivateEndpoint+0x192>
 8002316:	293e      	cmp	r1, #62	@ 0x3e
 8002318:	d812      	bhi.n	8002340 <USB_ActivateEndpoint+0x20c>
 800231a:	2501      	movs	r5, #1
 800231c:	0848      	lsrs	r0, r1, #1
 800231e:	4029      	ands	r1, r5
 8002320:	1840      	adds	r0, r0, r1
 8002322:	6851      	ldr	r1, [r2, #4]
 8002324:	0680      	lsls	r0, r0, #26
 8002326:	4308      	orrs	r0, r1
 8002328:	6050      	str	r0, [r2, #4]
      PCD_SET_EP_RX_STATUS(USBx, ep->num, USB_EP_RX_VALID);
 800232a:	22c0      	movs	r2, #192	@ 0xc0
 800232c:	6819      	ldr	r1, [r3, #0]
 800232e:	0192      	lsls	r2, r2, #6
 8002330:	4039      	ands	r1, r7
 8002332:	404a      	eors	r2, r1
      PCD_SET_EP_TX_STATUS(USBx, ep->num, USB_EP_TX_DIS);
 8002334:	4661      	mov	r1, ip
      PCD_SET_EP_RX_STATUS(USBx, ep->num, USB_EP_RX_VALID);
 8002336:	4322      	orrs	r2, r4
 8002338:	601a      	str	r2, [r3, #0]
      PCD_SET_EP_TX_STATUS(USBx, ep->num, USB_EP_TX_DIS);
 800233a:	681a      	ldr	r2, [r3, #0]
 800233c:	400a      	ands	r2, r1
 800233e:	e745      	b.n	80021cc <USB_ActivateEndpoint+0x98>
      PCD_SET_EP_DBUF_CNT(USBx, ep->num, ep->is_in, ep->maxpacket);
 8002340:	251f      	movs	r5, #31
 8002342:	0948      	lsrs	r0, r1, #5
 8002344:	4029      	ands	r1, r5
 8002346:	424d      	negs	r5, r1
 8002348:	4169      	adcs	r1, r5
 800234a:	1a40      	subs	r0, r0, r1
 800234c:	6851      	ldr	r1, [r2, #4]
 800234e:	0680      	lsls	r0, r0, #26
 8002350:	4308      	orrs	r0, r1
 8002352:	e7c1      	b.n	80022d8 <USB_ActivateEndpoint+0x1a4>
      PCD_CLEAR_RX_DTOG(USBx, ep->num);
 8002354:	2180      	movs	r1, #128	@ 0x80
 8002356:	681a      	ldr	r2, [r3, #0]
 8002358:	01c9      	lsls	r1, r1, #7
 800235a:	420a      	tst	r2, r1
 800235c:	d004      	beq.n	8002368 <USB_ActivateEndpoint+0x234>
 800235e:	6819      	ldr	r1, [r3, #0]
 8002360:	4a14      	ldr	r2, [pc, #80]	@ (80023b4 <USB_ActivateEndpoint+0x280>)
 8002362:	4029      	ands	r1, r5
 8002364:	430a      	orrs	r2, r1
 8002366:	601a      	str	r2, [r3, #0]
      PCD_CLEAR_TX_DTOG(USBx, ep->num);
 8002368:	681a      	ldr	r2, [r3, #0]
 800236a:	0652      	lsls	r2, r2, #25
 800236c:	d504      	bpl.n	8002378 <USB_ActivateEndpoint+0x244>
 800236e:	6819      	ldr	r1, [r3, #0]
 8002370:	4a0e      	ldr	r2, [pc, #56]	@ (80023ac <USB_ActivateEndpoint+0x278>)
 8002372:	4029      	ands	r1, r5
 8002374:	430a      	orrs	r2, r1
 8002376:	601a      	str	r2, [r3, #0]
      if (ep->type != EP_TYPE_ISOC)
 8002378:	2801      	cmp	r0, #1
 800237a:	d00b      	beq.n	8002394 <USB_ActivateEndpoint+0x260>
        PCD_SET_EP_TX_STATUS(USBx, ep->num, USB_EP_TX_NAK);
 800237c:	4662      	mov	r2, ip
 800237e:	6819      	ldr	r1, [r3, #0]
 8002380:	4011      	ands	r1, r2
 8002382:	2220      	movs	r2, #32
 8002384:	404a      	eors	r2, r1
        PCD_SET_EP_TX_STATUS(USBx, ep->num, USB_EP_TX_DIS);
 8002386:	4322      	orrs	r2, r4
 8002388:	601a      	str	r2, [r3, #0]
      PCD_SET_EP_RX_STATUS(USBx, ep->num, USB_EP_RX_DIS);
 800238a:	681a      	ldr	r2, [r3, #0]
 800238c:	403a      	ands	r2, r7
 800238e:	4314      	orrs	r4, r2
 8002390:	601c      	str	r4, [r3, #0]
 8002392:	e71d      	b.n	80021d0 <USB_ActivateEndpoint+0x9c>
        PCD_SET_EP_TX_STATUS(USBx, ep->num, USB_EP_TX_DIS);
 8002394:	4661      	mov	r1, ip
 8002396:	681a      	ldr	r2, [r3, #0]
 8002398:	400a      	ands	r2, r1
 800239a:	e7f4      	b.n	8002386 <USB_ActivateEndpoint+0x252>
 800239c:	07ff898f 	.word	0x07ff898f
 80023a0:	00008080 	.word	0x00008080
 80023a4:	07ff8f8f 	.word	0x07ff8f8f
 80023a8:	40009800 	.word	0x40009800
 80023ac:	000080c0 	.word	0x000080c0
 80023b0:	07ff8fbf 	.word	0x07ff8fbf
 80023b4:	0000c080 	.word	0x0000c080
 80023b8:	07ffbf8f 	.word	0x07ffbf8f
 80023bc:	00008180 	.word	0x00008180
 80023c0:	07ff8e8f 	.word	0x07ff8e8f

080023c4 <USB_DeactivateEndpoint>:
  * @param  USBx Selected device
  * @param  ep pointer to endpoint structure
  * @retval HAL status
  */
HAL_StatusTypeDef USB_DeactivateEndpoint(USB_DRD_TypeDef *USBx, USB_DRD_EPTypeDef *ep)
{
 80023c4:	b5f0      	push	{r4, r5, r6, r7, lr}
  if (ep->doublebuffer == 0U)
  {
    if (ep->is_in != 0U)
    {
      PCD_CLEAR_TX_DTOG(USBx, ep->num);
 80023c6:	780b      	ldrb	r3, [r1, #0]
  if (ep->doublebuffer == 0U)
 80023c8:	7b0a      	ldrb	r2, [r1, #12]
      PCD_CLEAR_TX_DTOG(USBx, ep->num);
 80023ca:	009b      	lsls	r3, r3, #2
 80023cc:	18c0      	adds	r0, r0, r3
    if (ep->is_in != 0U)
 80023ce:	784e      	ldrb	r6, [r1, #1]
 80023d0:	4b2e      	ldr	r3, [pc, #184]	@ (800248c <USB_DeactivateEndpoint+0xc8>)
  if (ep->doublebuffer == 0U)
 80023d2:	2a00      	cmp	r2, #0
 80023d4:	d11c      	bne.n	8002410 <USB_DeactivateEndpoint+0x4c>
      PCD_CLEAR_TX_DTOG(USBx, ep->num);
 80023d6:	6802      	ldr	r2, [r0, #0]
    if (ep->is_in != 0U)
 80023d8:	2e00      	cmp	r6, #0
 80023da:	d00e      	beq.n	80023fa <USB_DeactivateEndpoint+0x36>
      PCD_CLEAR_TX_DTOG(USBx, ep->num);
 80023dc:	0652      	lsls	r2, r2, #25
 80023de:	d505      	bpl.n	80023ec <USB_DeactivateEndpoint+0x28>
 80023e0:	6801      	ldr	r1, [r0, #0]
 80023e2:	4a2b      	ldr	r2, [pc, #172]	@ (8002490 <USB_DeactivateEndpoint+0xcc>)
 80023e4:	4011      	ands	r1, r2
 80023e6:	4a2b      	ldr	r2, [pc, #172]	@ (8002494 <USB_DeactivateEndpoint+0xd0>)
 80023e8:	430a      	orrs	r2, r1
 80023ea:	6002      	str	r2, [r0, #0]

      /* Configure DISABLE status for the Endpoint */
      PCD_SET_EP_TX_STATUS(USBx, ep->num, USB_EP_TX_DIS);
 80023ec:	6802      	ldr	r2, [r0, #0]
 80023ee:	492a      	ldr	r1, [pc, #168]	@ (8002498 <USB_DeactivateEndpoint+0xd4>)
    else
    {
      PCD_CLEAR_RX_DTOG(USBx, ep->num);

      /* Configure DISABLE status for the Endpoint */
      PCD_SET_EP_RX_STATUS(USBx, ep->num, USB_EP_RX_DIS);
 80023f0:	400a      	ands	r2, r1
      PCD_CLEAR_TX_DTOG(USBx, ep->num);
      PCD_RX_DTOG(USBx, ep->num);

      /* Configure DISABLE status for the Endpoint*/
      PCD_SET_EP_TX_STATUS(USBx, ep->num, USB_EP_TX_DIS);
      PCD_SET_EP_RX_STATUS(USBx, ep->num, USB_EP_RX_DIS);
 80023f2:	4313      	orrs	r3, r2
 80023f4:	6003      	str	r3, [r0, #0]
    }
  }
#endif /* (USE_USB_DOUBLE_BUFFER == 1U) */

  return HAL_OK;
}
 80023f6:	2000      	movs	r0, #0
 80023f8:	bdf0      	pop	{r4, r5, r6, r7, pc}
      PCD_CLEAR_RX_DTOG(USBx, ep->num);
 80023fa:	0452      	lsls	r2, r2, #17
 80023fc:	d505      	bpl.n	800240a <USB_DeactivateEndpoint+0x46>
 80023fe:	6801      	ldr	r1, [r0, #0]
 8002400:	4a23      	ldr	r2, [pc, #140]	@ (8002490 <USB_DeactivateEndpoint+0xcc>)
 8002402:	4011      	ands	r1, r2
 8002404:	4a25      	ldr	r2, [pc, #148]	@ (800249c <USB_DeactivateEndpoint+0xd8>)
 8002406:	430a      	orrs	r2, r1
 8002408:	6002      	str	r2, [r0, #0]
      PCD_SET_EP_RX_STATUS(USBx, ep->num, USB_EP_RX_DIS);
 800240a:	6802      	ldr	r2, [r0, #0]
 800240c:	4924      	ldr	r1, [pc, #144]	@ (80024a0 <USB_DeactivateEndpoint+0xdc>)
 800240e:	e7ef      	b.n	80023f0 <USB_DeactivateEndpoint+0x2c>
    if (ep->is_in == 0U)
 8002410:	2180      	movs	r1, #128	@ 0x80
 8002412:	4a1f      	ldr	r2, [pc, #124]	@ (8002490 <USB_DeactivateEndpoint+0xcc>)
 8002414:	4d20      	ldr	r5, [pc, #128]	@ (8002498 <USB_DeactivateEndpoint+0xd4>)
 8002416:	4c22      	ldr	r4, [pc, #136]	@ (80024a0 <USB_DeactivateEndpoint+0xdc>)
 8002418:	01c9      	lsls	r1, r1, #7
 800241a:	2e00      	cmp	r6, #0
 800241c:	d11a      	bne.n	8002454 <USB_DeactivateEndpoint+0x90>
      PCD_CLEAR_RX_DTOG(USBx, ep->num);
 800241e:	6806      	ldr	r6, [r0, #0]
 8002420:	420e      	tst	r6, r1
 8002422:	d004      	beq.n	800242e <USB_DeactivateEndpoint+0x6a>
 8002424:	6806      	ldr	r6, [r0, #0]
 8002426:	491d      	ldr	r1, [pc, #116]	@ (800249c <USB_DeactivateEndpoint+0xd8>)
 8002428:	4016      	ands	r6, r2
 800242a:	4331      	orrs	r1, r6
 800242c:	6001      	str	r1, [r0, #0]
      PCD_CLEAR_TX_DTOG(USBx, ep->num);
 800242e:	6801      	ldr	r1, [r0, #0]
 8002430:	4e18      	ldr	r6, [pc, #96]	@ (8002494 <USB_DeactivateEndpoint+0xd0>)
 8002432:	0649      	lsls	r1, r1, #25
 8002434:	d503      	bpl.n	800243e <USB_DeactivateEndpoint+0x7a>
 8002436:	6801      	ldr	r1, [r0, #0]
 8002438:	4011      	ands	r1, r2
 800243a:	4331      	orrs	r1, r6
 800243c:	6001      	str	r1, [r0, #0]
      PCD_TX_DTOG(USBx, ep->num);
 800243e:	6801      	ldr	r1, [r0, #0]
 8002440:	400a      	ands	r2, r1
 8002442:	4316      	orrs	r6, r2
 8002444:	6006      	str	r6, [r0, #0]
      PCD_SET_EP_RX_STATUS(USBx, ep->num, USB_EP_RX_DIS);
 8002446:	6802      	ldr	r2, [r0, #0]
 8002448:	4022      	ands	r2, r4
 800244a:	431a      	orrs	r2, r3
 800244c:	6002      	str	r2, [r0, #0]
      PCD_SET_EP_TX_STATUS(USBx, ep->num, USB_EP_TX_DIS);
 800244e:	6802      	ldr	r2, [r0, #0]
 8002450:	402a      	ands	r2, r5
 8002452:	e7ce      	b.n	80023f2 <USB_DeactivateEndpoint+0x2e>
      PCD_CLEAR_RX_DTOG(USBx, ep->num);
 8002454:	6807      	ldr	r7, [r0, #0]
 8002456:	4e11      	ldr	r6, [pc, #68]	@ (800249c <USB_DeactivateEndpoint+0xd8>)
 8002458:	420f      	tst	r7, r1
 800245a:	d003      	beq.n	8002464 <USB_DeactivateEndpoint+0xa0>
 800245c:	6801      	ldr	r1, [r0, #0]
 800245e:	4011      	ands	r1, r2
 8002460:	4331      	orrs	r1, r6
 8002462:	6001      	str	r1, [r0, #0]
      PCD_CLEAR_TX_DTOG(USBx, ep->num);
 8002464:	6801      	ldr	r1, [r0, #0]
 8002466:	0649      	lsls	r1, r1, #25
 8002468:	d504      	bpl.n	8002474 <USB_DeactivateEndpoint+0xb0>
 800246a:	6807      	ldr	r7, [r0, #0]
 800246c:	4909      	ldr	r1, [pc, #36]	@ (8002494 <USB_DeactivateEndpoint+0xd0>)
 800246e:	4017      	ands	r7, r2
 8002470:	4339      	orrs	r1, r7
 8002472:	6001      	str	r1, [r0, #0]
      PCD_RX_DTOG(USBx, ep->num);
 8002474:	6801      	ldr	r1, [r0, #0]
 8002476:	400a      	ands	r2, r1
 8002478:	4316      	orrs	r6, r2
 800247a:	6006      	str	r6, [r0, #0]
      PCD_SET_EP_TX_STATUS(USBx, ep->num, USB_EP_TX_DIS);
 800247c:	6802      	ldr	r2, [r0, #0]
 800247e:	402a      	ands	r2, r5
 8002480:	431a      	orrs	r2, r3
 8002482:	6002      	str	r2, [r0, #0]
      PCD_SET_EP_RX_STATUS(USBx, ep->num, USB_EP_RX_DIS);
 8002484:	6802      	ldr	r2, [r0, #0]
 8002486:	4022      	ands	r2, r4
 8002488:	e7b3      	b.n	80023f2 <USB_DeactivateEndpoint+0x2e>
 800248a:	46c0      	nop			@ (mov r8, r8)
 800248c:	00008080 	.word	0x00008080
 8002490:	07ff8f8f 	.word	0x07ff8f8f
 8002494:	000080c0 	.word	0x000080c0
 8002498:	07ff8fbf 	.word	0x07ff8fbf
 800249c:	0000c080 	.word	0x0000c080
 80024a0:	07ffbf8f 	.word	0x07ffbf8f

080024a4 <USB_EPSetStall>:
  */
HAL_StatusTypeDef USB_EPSetStall(USB_DRD_TypeDef *USBx, USB_DRD_EPTypeDef *ep)
{
  if (ep->is_in != 0U)
  {
    PCD_SET_EP_TX_STATUS(USBx, ep->num, USB_EP_TX_STALL);
 80024a4:	780b      	ldrb	r3, [r1, #0]
  if (ep->is_in != 0U)
 80024a6:	7849      	ldrb	r1, [r1, #1]
    PCD_SET_EP_TX_STATUS(USBx, ep->num, USB_EP_TX_STALL);
 80024a8:	009b      	lsls	r3, r3, #2
 80024aa:	4a0b      	ldr	r2, [pc, #44]	@ (80024d8 <USB_EPSetStall+0x34>)
 80024ac:	18c0      	adds	r0, r0, r3
  if (ep->is_in != 0U)
 80024ae:	2900      	cmp	r1, #0
 80024b0:	d008      	beq.n	80024c4 <USB_EPSetStall+0x20>
    PCD_SET_EP_TX_STATUS(USBx, ep->num, USB_EP_TX_STALL);
 80024b2:	6801      	ldr	r1, [r0, #0]
 80024b4:	4b09      	ldr	r3, [pc, #36]	@ (80024dc <USB_EPSetStall+0x38>)
 80024b6:	4019      	ands	r1, r3
 80024b8:	2310      	movs	r3, #16
 80024ba:	404b      	eors	r3, r1
 80024bc:	4313      	orrs	r3, r2
 80024be:	6003      	str	r3, [r0, #0]
  {
    PCD_SET_EP_RX_STATUS(USBx, ep->num, USB_EP_RX_STALL);
  }

  return HAL_OK;
}
 80024c0:	2000      	movs	r0, #0
 80024c2:	4770      	bx	lr
    PCD_SET_EP_RX_STATUS(USBx, ep->num, USB_EP_RX_STALL);
 80024c4:	6801      	ldr	r1, [r0, #0]
 80024c6:	4b06      	ldr	r3, [pc, #24]	@ (80024e0 <USB_EPSetStall+0x3c>)
 80024c8:	4019      	ands	r1, r3
 80024ca:	2380      	movs	r3, #128	@ 0x80
 80024cc:	015b      	lsls	r3, r3, #5
 80024ce:	404b      	eors	r3, r1
 80024d0:	431a      	orrs	r2, r3
 80024d2:	6002      	str	r2, [r0, #0]
 80024d4:	e7f4      	b.n	80024c0 <USB_EPSetStall+0x1c>
 80024d6:	46c0      	nop			@ (mov r8, r8)
 80024d8:	00008080 	.word	0x00008080
 80024dc:	07ff8fbf 	.word	0x07ff8fbf
 80024e0:	07ffbf8f 	.word	0x07ffbf8f

080024e4 <USB_EPClearStall>:
  */
HAL_StatusTypeDef USB_EPClearStall(USB_DRD_TypeDef *USBx, USB_DRD_EPTypeDef *ep)
{
  if (ep->is_in != 0U)
  {
    PCD_CLEAR_TX_DTOG(USBx, ep->num);
 80024e4:	780b      	ldrb	r3, [r1, #0]
  if (ep->is_in != 0U)
 80024e6:	784a      	ldrb	r2, [r1, #1]
    PCD_CLEAR_TX_DTOG(USBx, ep->num);
 80024e8:	009b      	lsls	r3, r3, #2
 80024ea:	18c0      	adds	r0, r0, r3
 80024ec:	6803      	ldr	r3, [r0, #0]
  if (ep->is_in != 0U)
 80024ee:	2a00      	cmp	r2, #0
 80024f0:	d014      	beq.n	800251c <USB_EPClearStall+0x38>
    PCD_CLEAR_TX_DTOG(USBx, ep->num);
 80024f2:	065b      	lsls	r3, r3, #25
 80024f4:	d505      	bpl.n	8002502 <USB_EPClearStall+0x1e>
 80024f6:	6802      	ldr	r2, [r0, #0]
 80024f8:	4b0f      	ldr	r3, [pc, #60]	@ (8002538 <USB_EPClearStall+0x54>)
 80024fa:	401a      	ands	r2, r3
 80024fc:	4b0f      	ldr	r3, [pc, #60]	@ (800253c <USB_EPClearStall+0x58>)
 80024fe:	4313      	orrs	r3, r2
 8002500:	6003      	str	r3, [r0, #0]

    if (ep->type != EP_TYPE_ISOC)
 8002502:	78cb      	ldrb	r3, [r1, #3]
 8002504:	2b01      	cmp	r3, #1
 8002506:	d007      	beq.n	8002518 <USB_EPClearStall+0x34>
    {
      /* Configure NAK status for the Endpoint */
      PCD_SET_EP_TX_STATUS(USBx, ep->num, USB_EP_TX_NAK);
 8002508:	4a0d      	ldr	r2, [pc, #52]	@ (8002540 <USB_EPClearStall+0x5c>)
 800250a:	6803      	ldr	r3, [r0, #0]
 800250c:	4013      	ands	r3, r2
 800250e:	2220      	movs	r2, #32
  else
  {
    PCD_CLEAR_RX_DTOG(USBx, ep->num);

    /* Configure VALID status for the Endpoint */
    PCD_SET_EP_RX_STATUS(USBx, ep->num, USB_EP_RX_VALID);
 8002510:	405a      	eors	r2, r3
 8002512:	4b0c      	ldr	r3, [pc, #48]	@ (8002544 <USB_EPClearStall+0x60>)
 8002514:	4313      	orrs	r3, r2
 8002516:	6003      	str	r3, [r0, #0]
  }

  return HAL_OK;
}
 8002518:	2000      	movs	r0, #0
 800251a:	4770      	bx	lr
    PCD_CLEAR_RX_DTOG(USBx, ep->num);
 800251c:	045b      	lsls	r3, r3, #17
 800251e:	d505      	bpl.n	800252c <USB_EPClearStall+0x48>
 8002520:	6802      	ldr	r2, [r0, #0]
 8002522:	4b05      	ldr	r3, [pc, #20]	@ (8002538 <USB_EPClearStall+0x54>)
 8002524:	401a      	ands	r2, r3
 8002526:	4b08      	ldr	r3, [pc, #32]	@ (8002548 <USB_EPClearStall+0x64>)
 8002528:	4313      	orrs	r3, r2
 800252a:	6003      	str	r3, [r0, #0]
    PCD_SET_EP_RX_STATUS(USBx, ep->num, USB_EP_RX_VALID);
 800252c:	4a07      	ldr	r2, [pc, #28]	@ (800254c <USB_EPClearStall+0x68>)
 800252e:	6803      	ldr	r3, [r0, #0]
 8002530:	4013      	ands	r3, r2
 8002532:	22c0      	movs	r2, #192	@ 0xc0
 8002534:	0192      	lsls	r2, r2, #6
 8002536:	e7eb      	b.n	8002510 <USB_EPClearStall+0x2c>
 8002538:	07ff8f8f 	.word	0x07ff8f8f
 800253c:	000080c0 	.word	0x000080c0
 8002540:	07ff8fbf 	.word	0x07ff8fbf
 8002544:	00008080 	.word	0x00008080
 8002548:	0000c080 	.word	0x0000c080
 800254c:	07ffbf8f 	.word	0x07ffbf8f

08002550 <USB_SetDevAddress>:
  *          This parameter can be a value from 0 to 255
  * @retval HAL status
  */
HAL_StatusTypeDef  USB_SetDevAddress(USB_DRD_TypeDef *USBx, uint8_t address)
{
  if (address == 0U)
 8002550:	2900      	cmp	r1, #0
 8002552:	d101      	bne.n	8002558 <USB_SetDevAddress+0x8>
  {
    /* set device address and enable function */
    USBx->DADDR = USB_DADDR_EF;
 8002554:	2380      	movs	r3, #128	@ 0x80
 8002556:	64c3      	str	r3, [r0, #76]	@ 0x4c
  }

  return HAL_OK;
}
 8002558:	2000      	movs	r0, #0
 800255a:	4770      	bx	lr

0800255c <USB_DevConnect>:
  * @retval HAL status
  */
HAL_StatusTypeDef  USB_DevConnect(USB_DRD_TypeDef *USBx)
{
  /* Enabling DP Pull-UP bit to Connect internal PU resistor on USB DP line */
  USBx->BCDR |= USB_BCDR_DPPU;
 800255c:	2380      	movs	r3, #128	@ 0x80
 800255e:	6d82      	ldr	r2, [r0, #88]	@ 0x58
 8002560:	021b      	lsls	r3, r3, #8
 8002562:	4313      	orrs	r3, r2
 8002564:	6583      	str	r3, [r0, #88]	@ 0x58

  return HAL_OK;
}
 8002566:	2000      	movs	r0, #0
 8002568:	4770      	bx	lr

0800256a <USB_ReadInterrupts>:
  */
uint32_t USB_ReadInterrupts(USB_DRD_TypeDef const *USBx)
{
  uint32_t tmpreg;

  tmpreg = USBx->ISTR;
 800256a:	6c40      	ldr	r0, [r0, #68]	@ 0x44
  return tmpreg;
}
 800256c:	4770      	bx	lr
	...

08002570 <USB_WritePMA>:
  * @param   wPMABufAddr address into PMA.
  * @param   wNBytes no. of bytes to be copied.
  * @retval None
  */
void USB_WritePMA(USB_DRD_TypeDef const *USBx, uint8_t *pbUsrBuf, uint16_t wPMABufAddr, uint16_t wNBytes)
{
 8002570:	b5f0      	push	{r4, r5, r6, r7, lr}
  uint32_t WrVal;
  uint32_t count;
  __IO uint32_t *pdwVal;
  uint32_t NbWords = ((uint32_t)wNBytes + 3U) >> 2U;
  /* Due to the PMA access 32bit only so the last non word data should be processed alone */
  uint16_t remaining_bytes = wNBytes % 4U;
 8002572:	2403      	movs	r4, #3
  uint32_t NbWords = ((uint32_t)wNBytes + 3U) >> 2U;
 8002574:	1cd8      	adds	r0, r3, #3
  uint16_t remaining_bytes = wNBytes % 4U;
 8002576:	4023      	ands	r3, r4
  uint8_t *pBuf = pbUsrBuf;

  /* Check if there is a remaining byte */
  if (remaining_bytes != 0U)
  {
    NbWords--;
 8002578:	001c      	movs	r4, r3
 800257a:	1e65      	subs	r5, r4, #1
 800257c:	41ac      	sbcs	r4, r5
  uint32_t NbWords = ((uint32_t)wNBytes + 3U) >> 2U;
 800257e:	0880      	lsrs	r0, r0, #2
    NbWords--;
 8002580:	1b00      	subs	r0, r0, r4
  }

  /* Get the PMA Buffer pointer */
  pdwVal = (__IO uint32_t *)(USB_DRD_PMAADDR + (uint32_t)wPMABufAddr);
 8002582:	4c11      	ldr	r4, [pc, #68]	@ (80025c8 <USB_WritePMA+0x58>)
 8002584:	0080      	lsls	r0, r0, #2
 8002586:	1912      	adds	r2, r2, r4
 8002588:	0016      	movs	r6, r2
 800258a:	180d      	adds	r5, r1, r0

  /* Write the Calculated Word into the PMA related Buffer */
  for (count = NbWords; count != 0U; count--)
 800258c:	42a9      	cmp	r1, r5
 800258e:	d10e      	bne.n	80025ae <USB_WritePMA+0x3e>
    pBuf++;
    pBuf++;
  }

  /* When Number of data is not word aligned, write the remaining Byte */
  if (remaining_bytes != 0U)
 8002590:	2b00      	cmp	r3, #0
 8002592:	d00b      	beq.n	80025ac <USB_WritePMA+0x3c>
 8002594:	2100      	movs	r1, #0
  {
    WrVal = 0U;
 8002596:	000c      	movs	r4, r1

    do
    {
      WrVal |= (uint32_t)(*(uint8_t *)pBuf) << (8U * count);
 8002598:	5c6e      	ldrb	r6, [r5, r1]
 800259a:	00cf      	lsls	r7, r1, #3
 800259c:	40be      	lsls	r6, r7
      count++;
 800259e:	3101      	adds	r1, #1
      WrVal |= (uint32_t)(*(uint8_t *)pBuf) << (8U * count);
 80025a0:	4334      	orrs	r4, r6
      pBuf++;
      remaining_bytes--;
    } while (remaining_bytes != 0U);
 80025a2:	b28e      	uxth	r6, r1
 80025a4:	42b3      	cmp	r3, r6
 80025a6:	d1f7      	bne.n	8002598 <USB_WritePMA+0x28>

    *pdwVal = WrVal;
 80025a8:	1812      	adds	r2, r2, r0
 80025aa:	6014      	str	r4, [r2, #0]
  }
}
 80025ac:	bdf0      	pop	{r4, r5, r6, r7, pc}
    *pdwVal = __UNALIGNED_UINT32_READ(pBuf);
 80025ae:	784c      	ldrb	r4, [r1, #1]
 80025b0:	780f      	ldrb	r7, [r1, #0]
 80025b2:	0224      	lsls	r4, r4, #8
 80025b4:	433c      	orrs	r4, r7
 80025b6:	788f      	ldrb	r7, [r1, #2]
 80025b8:	043f      	lsls	r7, r7, #16
 80025ba:	4327      	orrs	r7, r4
 80025bc:	78cc      	ldrb	r4, [r1, #3]
    pBuf++;
 80025be:	3104      	adds	r1, #4
    *pdwVal = __UNALIGNED_UINT32_READ(pBuf);
 80025c0:	0624      	lsls	r4, r4, #24
 80025c2:	433c      	orrs	r4, r7
 80025c4:	c610      	stmia	r6!, {r4}
  for (count = NbWords; count != 0U; count--)
 80025c6:	e7e1      	b.n	800258c <USB_WritePMA+0x1c>
 80025c8:	40009800 	.word	0x40009800

080025cc <USB_EPStartXfer>:
{
 80025cc:	b5f0      	push	{r4, r5, r6, r7, lr}
  if (ep->is_in == 1U)
 80025ce:	784a      	ldrb	r2, [r1, #1]
{
 80025d0:	0006      	movs	r6, r0
 80025d2:	000c      	movs	r4, r1
    if (ep->doublebuffer == 0U)
 80025d4:	7b0b      	ldrb	r3, [r1, #12]
{
 80025d6:	b085      	sub	sp, #20
  if (ep->is_in == 1U)
 80025d8:	2a01      	cmp	r2, #1
 80025da:	d000      	beq.n	80025de <USB_EPStartXfer+0x12>
 80025dc:	e10d      	b.n	80027fa <USB_EPStartXfer+0x22e>
    if (ep->xfer_len > ep->maxpacket)
 80025de:	690f      	ldr	r7, [r1, #16]
 80025e0:	698d      	ldr	r5, [r1, #24]
 80025e2:	42bd      	cmp	r5, r7
 80025e4:	d900      	bls.n	80025e8 <USB_EPStartXfer+0x1c>
 80025e6:	003d      	movs	r5, r7
      USB_WritePMA(USBx, ep->xfer_buff, ep->pmaadress, (uint16_t)len);
 80025e8:	6962      	ldr	r2, [r4, #20]
 80025ea:	9201      	str	r2, [sp, #4]
    if (ep->doublebuffer == 0U)
 80025ec:	2b00      	cmp	r3, #0
 80025ee:	d11e      	bne.n	800262e <USB_EPStartXfer+0x62>
      USB_WritePMA(USBx, ep->xfer_buff, ep->pmaadress, (uint16_t)len);
 80025f0:	b2ab      	uxth	r3, r5
 80025f2:	88e2      	ldrh	r2, [r4, #6]
 80025f4:	0030      	movs	r0, r6
 80025f6:	9901      	ldr	r1, [sp, #4]
 80025f8:	f7ff ffba 	bl	8002570 <USB_WritePMA>
      PCD_SET_EP_TX_CNT(USBx, ep->num, len);
 80025fc:	7823      	ldrb	r3, [r4, #0]
 80025fe:	4aa2      	ldr	r2, [pc, #648]	@ (8002888 <USB_EPStartXfer+0x2bc>)
 8002600:	00db      	lsls	r3, r3, #3
 8002602:	189b      	adds	r3, r3, r2
 8002604:	681a      	ldr	r2, [r3, #0]
 8002606:	042d      	lsls	r5, r5, #16
 8002608:	b292      	uxth	r2, r2
 800260a:	601a      	str	r2, [r3, #0]
 800260c:	681a      	ldr	r2, [r3, #0]
 800260e:	4315      	orrs	r5, r2
 8002610:	601d      	str	r5, [r3, #0]
    PCD_SET_EP_TX_STATUS(USBx, ep->num, USB_EP_TX_VALID);
 8002612:	7823      	ldrb	r3, [r4, #0]
 8002614:	4a9d      	ldr	r2, [pc, #628]	@ (800288c <USB_EPStartXfer+0x2c0>)
 8002616:	009b      	lsls	r3, r3, #2
 8002618:	18f3      	adds	r3, r6, r3
 800261a:	6819      	ldr	r1, [r3, #0]
 800261c:	4011      	ands	r1, r2
 800261e:	2230      	movs	r2, #48	@ 0x30
 8002620:	404a      	eors	r2, r1
 8002622:	499b      	ldr	r1, [pc, #620]	@ (8002890 <USB_EPStartXfer+0x2c4>)
 8002624:	430a      	orrs	r2, r1
 8002626:	601a      	str	r2, [r3, #0]
  return HAL_OK;
 8002628:	2000      	movs	r0, #0
}
 800262a:	b005      	add	sp, #20
 800262c:	bdf0      	pop	{r4, r5, r6, r7, pc}
          PCD_SET_BULK_EP_DBUF(USBx, ep->num);
 800262e:	7820      	ldrb	r0, [r4, #0]
            PCD_SET_EP_DBUF1_CNT(USBx, ep->num, ep->is_in, len);
 8002630:	4995      	ldr	r1, [pc, #596]	@ (8002888 <USB_EPStartXfer+0x2bc>)
 8002632:	00c2      	lsls	r2, r0, #3
 8002634:	1852      	adds	r2, r2, r1
      if (ep->type == EP_TYPE_BULK)
 8002636:	78e1      	ldrb	r1, [r4, #3]
          PCD_SET_BULK_EP_DBUF(USBx, ep->num);
 8002638:	0080      	lsls	r0, r0, #2
        if (ep->xfer_len_db > ep->maxpacket)
 800263a:	6a23      	ldr	r3, [r4, #32]
 800263c:	1830      	adds	r0, r6, r0
      if (ep->type == EP_TYPE_BULK)
 800263e:	2902      	cmp	r1, #2
 8002640:	d000      	beq.n	8002644 <USB_EPStartXfer+0x78>
 8002642:	e0c3      	b.n	80027cc <USB_EPStartXfer+0x200>
        if (ep->xfer_len_db > ep->maxpacket)
 8002644:	429f      	cmp	r7, r3
 8002646:	d300      	bcc.n	800264a <USB_EPStartXfer+0x7e>
 8002648:	e0b0      	b.n	80027ac <USB_EPStartXfer+0x1e0>
          PCD_SET_BULK_EP_DBUF(USBx, ep->num);
 800264a:	6807      	ldr	r7, [r0, #0]
 800264c:	4b91      	ldr	r3, [pc, #580]	@ (8002894 <USB_EPStartXfer+0x2c8>)
      PCD_SET_EP_TX_CNT(USBx, ep->num, len);
 800264e:	0429      	lsls	r1, r5, #16
          PCD_SET_BULK_EP_DBUF(USBx, ep->num);
 8002650:	401f      	ands	r7, r3
 8002652:	4b91      	ldr	r3, [pc, #580]	@ (8002898 <USB_EPStartXfer+0x2cc>)
      PCD_SET_EP_TX_CNT(USBx, ep->num, len);
 8002654:	9103      	str	r1, [sp, #12]
          PCD_SET_BULK_EP_DBUF(USBx, ep->num);
 8002656:	433b      	orrs	r3, r7
 8002658:	6003      	str	r3, [r0, #0]
          ep->xfer_len_db -= len;
 800265a:	6a23      	ldr	r3, [r4, #32]
 800265c:	1b5b      	subs	r3, r3, r5
 800265e:	6223      	str	r3, [r4, #32]
          if ((PCD_GET_ENDPOINT(USBx, ep->num) & USB_EP_DTOG_TX) != 0U)
 8002660:	6803      	ldr	r3, [r0, #0]
 8002662:	2040      	movs	r0, #64	@ 0x40
 8002664:	469c      	mov	ip, r3
 8002666:	4661      	mov	r1, ip
 8002668:	4003      	ands	r3, r0
 800266a:	9302      	str	r3, [sp, #8]
            ep->xfer_buff += len;
 800266c:	9b01      	ldr	r3, [sp, #4]
 800266e:	195f      	adds	r7, r3, r5
      USB_WritePMA(USBx, ep->xfer_buff, ep->pmaadress, (uint16_t)len);
 8002670:	b2ab      	uxth	r3, r5
          if ((PCD_GET_ENDPOINT(USBx, ep->num) & USB_EP_DTOG_TX) != 0U)
 8002672:	4201      	tst	r1, r0
 8002674:	d04e      	beq.n	8002714 <USB_EPStartXfer+0x148>
            PCD_SET_EP_DBUF1_CNT(USBx, ep->num, ep->is_in, len);
 8002676:	6850      	ldr	r0, [r2, #4]
 8002678:	0429      	lsls	r1, r5, #16
 800267a:	b280      	uxth	r0, r0
 800267c:	6050      	str	r0, [r2, #4]
 800267e:	6850      	ldr	r0, [r2, #4]
 8002680:	4308      	orrs	r0, r1
 8002682:	6050      	str	r0, [r2, #4]
            USB_WritePMA(USBx, ep->xfer_buff, pmabuffer, (uint16_t)len);
 8002684:	8962      	ldrh	r2, [r4, #10]
 8002686:	9901      	ldr	r1, [sp, #4]
 8002688:	0030      	movs	r0, r6
 800268a:	f7ff ff71 	bl	8002570 <USB_WritePMA>
            if (ep->xfer_len_db > ep->maxpacket)
 800268e:	6a23      	ldr	r3, [r4, #32]
 8002690:	6921      	ldr	r1, [r4, #16]
              ep->xfer_len_db = 0U;
 8002692:	2200      	movs	r2, #0
            ep->xfer_buff += len;
 8002694:	6167      	str	r7, [r4, #20]
            if (ep->xfer_len_db > ep->maxpacket)
 8002696:	428b      	cmp	r3, r1
 8002698:	d901      	bls.n	800269e <USB_EPStartXfer+0xd2>
              ep->xfer_len_db -= len;
 800269a:	1b5a      	subs	r2, r3, r5
 800269c:	002b      	movs	r3, r5
 800269e:	6222      	str	r2, [r4, #32]
            PCD_SET_EP_DBUF0_CNT(USBx, ep->num, ep->is_in, len);
 80026a0:	7862      	ldrb	r2, [r4, #1]
 80026a2:	2a00      	cmp	r2, #0
 80026a4:	d12a      	bne.n	80026fc <USB_EPStartXfer+0x130>
 80026a6:	7822      	ldrb	r2, [r4, #0]
 80026a8:	4977      	ldr	r1, [pc, #476]	@ (8002888 <USB_EPStartXfer+0x2bc>)
 80026aa:	00d2      	lsls	r2, r2, #3
 80026ac:	1852      	adds	r2, r2, r1
 80026ae:	6811      	ldr	r1, [r2, #0]
 80026b0:	0189      	lsls	r1, r1, #6
 80026b2:	0989      	lsrs	r1, r1, #6
 80026b4:	6011      	str	r1, [r2, #0]
 80026b6:	2b00      	cmp	r3, #0
 80026b8:	d10b      	bne.n	80026d2 <USB_EPStartXfer+0x106>
 80026ba:	2180      	movs	r1, #128	@ 0x80
 80026bc:	6810      	ldr	r0, [r2, #0]
 80026be:	0609      	lsls	r1, r1, #24
 80026c0:	4301      	orrs	r1, r0
 80026c2:	6011      	str	r1, [r2, #0]
            USB_WritePMA(USBx, ep->xfer_buff, pmabuffer, (uint16_t)len);
 80026c4:	8922      	ldrh	r2, [r4, #8]
 80026c6:	b29b      	uxth	r3, r3
            USB_WritePMA(USBx, ep->xfer_buff, pmabuffer, (uint16_t)len);
 80026c8:	0039      	movs	r1, r7
          USB_WritePMA(USBx, ep->xfer_buff, pmabuffer, (uint16_t)len);
 80026ca:	0030      	movs	r0, r6
 80026cc:	f7ff ff50 	bl	8002570 <USB_WritePMA>
 80026d0:	e79f      	b.n	8002612 <USB_EPStartXfer+0x46>
            PCD_SET_EP_DBUF0_CNT(USBx, ep->num, ep->is_in, len);
 80026d2:	2b3e      	cmp	r3, #62	@ 0x3e
 80026d4:	d806      	bhi.n	80026e4 <USB_EPStartXfer+0x118>
 80026d6:	2001      	movs	r0, #1
 80026d8:	0859      	lsrs	r1, r3, #1
 80026da:	4018      	ands	r0, r3
 80026dc:	1809      	adds	r1, r1, r0
 80026de:	0689      	lsls	r1, r1, #26
 80026e0:	6810      	ldr	r0, [r2, #0]
 80026e2:	e7ed      	b.n	80026c0 <USB_EPStartXfer+0xf4>
 80026e4:	201f      	movs	r0, #31
 80026e6:	4018      	ands	r0, r3
 80026e8:	4245      	negs	r5, r0
 80026ea:	4168      	adcs	r0, r5
 80026ec:	0959      	lsrs	r1, r3, #5
 80026ee:	1a09      	subs	r1, r1, r0
 80026f0:	6810      	ldr	r0, [r2, #0]
 80026f2:	0689      	lsls	r1, r1, #26
 80026f4:	4301      	orrs	r1, r0
 80026f6:	2080      	movs	r0, #128	@ 0x80
 80026f8:	0600      	lsls	r0, r0, #24
 80026fa:	e7e1      	b.n	80026c0 <USB_EPStartXfer+0xf4>
 80026fc:	2a01      	cmp	r2, #1
 80026fe:	d1e1      	bne.n	80026c4 <USB_EPStartXfer+0xf8>
 8002700:	7822      	ldrb	r2, [r4, #0]
 8002702:	4961      	ldr	r1, [pc, #388]	@ (8002888 <USB_EPStartXfer+0x2bc>)
 8002704:	00d2      	lsls	r2, r2, #3
 8002706:	1852      	adds	r2, r2, r1
 8002708:	6811      	ldr	r1, [r2, #0]
 800270a:	b289      	uxth	r1, r1
 800270c:	6011      	str	r1, [r2, #0]
 800270e:	6810      	ldr	r0, [r2, #0]
 8002710:	0419      	lsls	r1, r3, #16
 8002712:	e7d5      	b.n	80026c0 <USB_EPStartXfer+0xf4>
            PCD_SET_EP_DBUF0_CNT(USBx, ep->num, ep->is_in, len);
 8002714:	6810      	ldr	r0, [r2, #0]
 8002716:	0429      	lsls	r1, r5, #16
 8002718:	b280      	uxth	r0, r0
 800271a:	6010      	str	r0, [r2, #0]
 800271c:	6810      	ldr	r0, [r2, #0]
 800271e:	4308      	orrs	r0, r1
 8002720:	6010      	str	r0, [r2, #0]
            USB_WritePMA(USBx, ep->xfer_buff, pmabuffer, (uint16_t)len);
 8002722:	8922      	ldrh	r2, [r4, #8]
 8002724:	0030      	movs	r0, r6
 8002726:	9901      	ldr	r1, [sp, #4]
 8002728:	f7ff ff22 	bl	8002570 <USB_WritePMA>
            if (ep->xfer_len_db > ep->maxpacket)
 800272c:	6a23      	ldr	r3, [r4, #32]
 800272e:	6922      	ldr	r2, [r4, #16]
            ep->xfer_buff += len;
 8002730:	6167      	str	r7, [r4, #20]
            if (ep->xfer_len_db > ep->maxpacket)
 8002732:	4293      	cmp	r3, r2
 8002734:	d902      	bls.n	800273c <USB_EPStartXfer+0x170>
              ep->xfer_len_db -= len;
 8002736:	1b5b      	subs	r3, r3, r5
 8002738:	9302      	str	r3, [sp, #8]
 800273a:	002b      	movs	r3, r5
 800273c:	9a02      	ldr	r2, [sp, #8]
 800273e:	6222      	str	r2, [r4, #32]
            PCD_SET_EP_DBUF1_CNT(USBx, ep->num, ep->is_in, len);
 8002740:	7862      	ldrb	r2, [r4, #1]
 8002742:	2a00      	cmp	r2, #0
 8002744:	d126      	bne.n	8002794 <USB_EPStartXfer+0x1c8>
 8002746:	7822      	ldrb	r2, [r4, #0]
 8002748:	494f      	ldr	r1, [pc, #316]	@ (8002888 <USB_EPStartXfer+0x2bc>)
 800274a:	00d2      	lsls	r2, r2, #3
 800274c:	1852      	adds	r2, r2, r1
 800274e:	6851      	ldr	r1, [r2, #4]
 8002750:	0189      	lsls	r1, r1, #6
 8002752:	0989      	lsrs	r1, r1, #6
 8002754:	6051      	str	r1, [r2, #4]
 8002756:	2b00      	cmp	r3, #0
 8002758:	d107      	bne.n	800276a <USB_EPStartXfer+0x19e>
 800275a:	2180      	movs	r1, #128	@ 0x80
 800275c:	6850      	ldr	r0, [r2, #4]
 800275e:	0609      	lsls	r1, r1, #24
 8002760:	4301      	orrs	r1, r0
 8002762:	6051      	str	r1, [r2, #4]
            USB_WritePMA(USBx, ep->xfer_buff, pmabuffer, (uint16_t)len);
 8002764:	8962      	ldrh	r2, [r4, #10]
 8002766:	b29b      	uxth	r3, r3
 8002768:	e7ae      	b.n	80026c8 <USB_EPStartXfer+0xfc>
            PCD_SET_EP_DBUF1_CNT(USBx, ep->num, ep->is_in, len);
 800276a:	2b3e      	cmp	r3, #62	@ 0x3e
 800276c:	d806      	bhi.n	800277c <USB_EPStartXfer+0x1b0>
 800276e:	2001      	movs	r0, #1
 8002770:	0859      	lsrs	r1, r3, #1
 8002772:	4018      	ands	r0, r3
 8002774:	1809      	adds	r1, r1, r0
 8002776:	0689      	lsls	r1, r1, #26
 8002778:	6850      	ldr	r0, [r2, #4]
 800277a:	e7f1      	b.n	8002760 <USB_EPStartXfer+0x194>
 800277c:	201f      	movs	r0, #31
 800277e:	4018      	ands	r0, r3
 8002780:	4245      	negs	r5, r0
 8002782:	4168      	adcs	r0, r5
 8002784:	0959      	lsrs	r1, r3, #5
 8002786:	1a09      	subs	r1, r1, r0
 8002788:	6850      	ldr	r0, [r2, #4]
 800278a:	0689      	lsls	r1, r1, #26
 800278c:	4301      	orrs	r1, r0
 800278e:	2080      	movs	r0, #128	@ 0x80
 8002790:	0600      	lsls	r0, r0, #24
 8002792:	e7e5      	b.n	8002760 <USB_EPStartXfer+0x194>
 8002794:	2a01      	cmp	r2, #1
 8002796:	d1e5      	bne.n	8002764 <USB_EPStartXfer+0x198>
 8002798:	7822      	ldrb	r2, [r4, #0]
 800279a:	493b      	ldr	r1, [pc, #236]	@ (8002888 <USB_EPStartXfer+0x2bc>)
 800279c:	00d2      	lsls	r2, r2, #3
 800279e:	1852      	adds	r2, r2, r1
 80027a0:	6851      	ldr	r1, [r2, #4]
 80027a2:	b289      	uxth	r1, r1
 80027a4:	6051      	str	r1, [r2, #4]
 80027a6:	6850      	ldr	r0, [r2, #4]
 80027a8:	0419      	lsls	r1, r3, #16
 80027aa:	e7d9      	b.n	8002760 <USB_EPStartXfer+0x194>
          PCD_CLEAR_BULK_EP_DBUF(USBx, ep->num);
 80027ac:	6805      	ldr	r5, [r0, #0]
 80027ae:	4f3b      	ldr	r7, [pc, #236]	@ (800289c <USB_EPStartXfer+0x2d0>)
 80027b0:	4937      	ldr	r1, [pc, #220]	@ (8002890 <USB_EPStartXfer+0x2c4>)
 80027b2:	403d      	ands	r5, r7
 80027b4:	430d      	orrs	r5, r1
 80027b6:	6005      	str	r5, [r0, #0]
          PCD_SET_EP_TX_CNT(USBx, ep->num, len);
 80027b8:	6810      	ldr	r0, [r2, #0]
 80027ba:	b280      	uxth	r0, r0
 80027bc:	6010      	str	r0, [r2, #0]
 80027be:	6815      	ldr	r5, [r2, #0]
 80027c0:	0418      	lsls	r0, r3, #16
 80027c2:	4328      	orrs	r0, r5
 80027c4:	6010      	str	r0, [r2, #0]
          USB_WritePMA(USBx, ep->xfer_buff, pmabuffer, (uint16_t)len);
 80027c6:	b29b      	uxth	r3, r3
          USB_WritePMA(USBx, ep->xfer_buff, pmabuffer, (uint16_t)len);
 80027c8:	8922      	ldrh	r2, [r4, #8]
 80027ca:	e00d      	b.n	80027e8 <USB_EPStartXfer+0x21c>
        ep->xfer_len_db -= len;
 80027cc:	1b5b      	subs	r3, r3, r5
 80027ce:	6223      	str	r3, [r4, #32]
        if ((PCD_GET_ENDPOINT(USBx, ep->num) & USB_EP_DTOG_TX) != 0U)
 80027d0:	6800      	ldr	r0, [r0, #0]
      USB_WritePMA(USBx, ep->xfer_buff, ep->pmaadress, (uint16_t)len);
 80027d2:	b2ab      	uxth	r3, r5
      PCD_SET_EP_TX_CNT(USBx, ep->num, len);
 80027d4:	042f      	lsls	r7, r5, #16
        if ((PCD_GET_ENDPOINT(USBx, ep->num) & USB_EP_DTOG_TX) != 0U)
 80027d6:	0640      	lsls	r0, r0, #25
 80027d8:	d508      	bpl.n	80027ec <USB_EPStartXfer+0x220>
          PCD_SET_EP_DBUF1_CNT(USBx, ep->num, ep->is_in, len);
 80027da:	6850      	ldr	r0, [r2, #4]
 80027dc:	b280      	uxth	r0, r0
 80027de:	6050      	str	r0, [r2, #4]
 80027e0:	6850      	ldr	r0, [r2, #4]
 80027e2:	4338      	orrs	r0, r7
 80027e4:	6050      	str	r0, [r2, #4]
          USB_WritePMA(USBx, ep->xfer_buff, pmabuffer, (uint16_t)len);
 80027e6:	8962      	ldrh	r2, [r4, #10]
          USB_WritePMA(USBx, ep->xfer_buff, pmabuffer, (uint16_t)len);
 80027e8:	9901      	ldr	r1, [sp, #4]
 80027ea:	e76e      	b.n	80026ca <USB_EPStartXfer+0xfe>
          PCD_SET_EP_DBUF0_CNT(USBx, ep->num, ep->is_in, len);
 80027ec:	6810      	ldr	r0, [r2, #0]
 80027ee:	b280      	uxth	r0, r0
 80027f0:	6010      	str	r0, [r2, #0]
 80027f2:	6815      	ldr	r5, [r2, #0]
 80027f4:	433d      	orrs	r5, r7
 80027f6:	6015      	str	r5, [r2, #0]
 80027f8:	e7e6      	b.n	80027c8 <USB_EPStartXfer+0x1fc>
    if (ep->doublebuffer == 0U)
 80027fa:	2b00      	cmp	r3, #0
 80027fc:	d126      	bne.n	800284c <USB_EPStartXfer+0x280>
        PCD_SET_OUT_STATUS(USBx, ep->num);
 80027fe:	780b      	ldrb	r3, [r1, #0]
      if ((ep->xfer_len == 0U) && (ep->type == EP_TYPE_CTRL))
 8002800:	698a      	ldr	r2, [r1, #24]
        PCD_SET_OUT_STATUS(USBx, ep->num);
 8002802:	009b      	lsls	r3, r3, #2
 8002804:	18c3      	adds	r3, r0, r3
      if ((ep->xfer_len == 0U) && (ep->type == EP_TYPE_CTRL))
 8002806:	2a00      	cmp	r2, #0
 8002808:	d11b      	bne.n	8002842 <USB_EPStartXfer+0x276>
 800280a:	78ca      	ldrb	r2, [r1, #3]
 800280c:	2a00      	cmp	r2, #0
 800280e:	d118      	bne.n	8002842 <USB_EPStartXfer+0x276>
        PCD_SET_OUT_STATUS(USBx, ep->num);
 8002810:	4a20      	ldr	r2, [pc, #128]	@ (8002894 <USB_EPStartXfer+0x2c8>)
 8002812:	6819      	ldr	r1, [r3, #0]
 8002814:	4011      	ands	r1, r2
 8002816:	4a20      	ldr	r2, [pc, #128]	@ (8002898 <USB_EPStartXfer+0x2cc>)
        PCD_CLEAR_OUT_STATUS(USBx, ep->num);
 8002818:	430a      	orrs	r2, r1
 800281a:	601a      	str	r2, [r3, #0]
      if (ep->xfer_len > ep->maxpacket)
 800281c:	69a3      	ldr	r3, [r4, #24]
 800281e:	6922      	ldr	r2, [r4, #16]
 8002820:	4293      	cmp	r3, r2
 8002822:	d92e      	bls.n	8002882 <USB_EPStartXfer+0x2b6>
        ep->xfer_len -= ep->maxpacket;
 8002824:	1a9b      	subs	r3, r3, r2
        ep->xfer_len = 0U;
 8002826:	61a3      	str	r3, [r4, #24]
    PCD_SET_EP_RX_STATUS(USBx, ep->num, USB_EP_RX_VALID);
 8002828:	7823      	ldrb	r3, [r4, #0]
 800282a:	4a1d      	ldr	r2, [pc, #116]	@ (80028a0 <USB_EPStartXfer+0x2d4>)
 800282c:	009b      	lsls	r3, r3, #2
 800282e:	18f6      	adds	r6, r6, r3
 8002830:	6833      	ldr	r3, [r6, #0]
 8002832:	4013      	ands	r3, r2
 8002834:	22c0      	movs	r2, #192	@ 0xc0
 8002836:	0192      	lsls	r2, r2, #6
 8002838:	405a      	eors	r2, r3
 800283a:	4b15      	ldr	r3, [pc, #84]	@ (8002890 <USB_EPStartXfer+0x2c4>)
 800283c:	4313      	orrs	r3, r2
 800283e:	6033      	str	r3, [r6, #0]
 8002840:	e6f2      	b.n	8002628 <USB_EPStartXfer+0x5c>
        PCD_CLEAR_OUT_STATUS(USBx, ep->num);
 8002842:	4a16      	ldr	r2, [pc, #88]	@ (800289c <USB_EPStartXfer+0x2d0>)
 8002844:	6819      	ldr	r1, [r3, #0]
 8002846:	4011      	ands	r1, r2
 8002848:	4a11      	ldr	r2, [pc, #68]	@ (8002890 <USB_EPStartXfer+0x2c4>)
 800284a:	e7e5      	b.n	8002818 <USB_EPStartXfer+0x24c>
      if (ep->type == EP_TYPE_BULK)
 800284c:	78cb      	ldrb	r3, [r1, #3]
 800284e:	2b02      	cmp	r3, #2
 8002850:	d113      	bne.n	800287a <USB_EPStartXfer+0x2ae>
        if (ep->xfer_count != 0U)
 8002852:	69cb      	ldr	r3, [r1, #28]
 8002854:	2b00      	cmp	r3, #0
 8002856:	d0e7      	beq.n	8002828 <USB_EPStartXfer+0x25c>
          wEPVal = (uint16_t)PCD_GET_ENDPOINT(USBx, ep->num);
 8002858:	780b      	ldrb	r3, [r1, #0]
          if ((((wEPVal & USB_EP_DTOG_RX) != 0U) && ((wEPVal & USB_EP_DTOG_TX) != 0U)) ||
 800285a:	4a12      	ldr	r2, [pc, #72]	@ (80028a4 <USB_EPStartXfer+0x2d8>)
          wEPVal = (uint16_t)PCD_GET_ENDPOINT(USBx, ep->num);
 800285c:	009b      	lsls	r3, r3, #2
 800285e:	18c1      	adds	r1, r0, r3
 8002860:	680b      	ldr	r3, [r1, #0]
          if ((((wEPVal & USB_EP_DTOG_RX) != 0U) && ((wEPVal & USB_EP_DTOG_TX) != 0U)) ||
 8002862:	4013      	ands	r3, r2
 8002864:	4293      	cmp	r3, r2
 8002866:	d001      	beq.n	800286c <USB_EPStartXfer+0x2a0>
 8002868:	2b00      	cmp	r3, #0
 800286a:	d1dd      	bne.n	8002828 <USB_EPStartXfer+0x25c>
            PCD_FREE_USER_BUFFER(USBx, ep->num, 0U);
 800286c:	680a      	ldr	r2, [r1, #0]
 800286e:	4b09      	ldr	r3, [pc, #36]	@ (8002894 <USB_EPStartXfer+0x2c8>)
 8002870:	401a      	ands	r2, r3
 8002872:	4b0d      	ldr	r3, [pc, #52]	@ (80028a8 <USB_EPStartXfer+0x2dc>)
 8002874:	4313      	orrs	r3, r2
 8002876:	600b      	str	r3, [r1, #0]
 8002878:	e7d6      	b.n	8002828 <USB_EPStartXfer+0x25c>
        return HAL_ERROR;
 800287a:	2001      	movs	r0, #1
      else if (ep->type == EP_TYPE_ISOC)
 800287c:	2b01      	cmp	r3, #1
 800287e:	d000      	beq.n	8002882 <USB_EPStartXfer+0x2b6>
 8002880:	e6d3      	b.n	800262a <USB_EPStartXfer+0x5e>
        ep->xfer_len = 0U;
 8002882:	2300      	movs	r3, #0
 8002884:	e7cf      	b.n	8002826 <USB_EPStartXfer+0x25a>
 8002886:	46c0      	nop			@ (mov r8, r8)
 8002888:	40009800 	.word	0x40009800
 800288c:	07ff8fbf 	.word	0x07ff8fbf
 8002890:	00008080 	.word	0x00008080
 8002894:	07ff8f8f 	.word	0x07ff8f8f
 8002898:	00008180 	.word	0x00008180
 800289c:	07ff8e8f 	.word	0x07ff8e8f
 80028a0:	07ffbf8f 	.word	0x07ffbf8f
 80028a4:	00004040 	.word	0x00004040
 80028a8:	000080c0 	.word	0x000080c0

080028ac <USB_ReadPMA>:
  * @param   wPMABufAddr address into PMA.
  * @param   wNBytes no. of bytes to be copied.
  * @retval None
  */
void USB_ReadPMA(USB_DRD_TypeDef const *USBx, uint8_t *pbUsrBuf, uint16_t wPMABufAddr, uint16_t wNBytes)
{
 80028ac:	b5f0      	push	{r4, r5, r6, r7, lr}
  uint32_t count;
  uint32_t RdVal;
  __IO uint32_t *pdwVal;
  uint32_t NbWords = ((uint32_t)wNBytes + 3U) >> 2U;
  /*Due to the PMA access 32bit only so the last non word data should be processed alone */
  uint16_t remaining_bytes = wNBytes % 4U;
 80028ae:	2403      	movs	r4, #3
  uint32_t NbWords = ((uint32_t)wNBytes + 3U) >> 2U;
 80028b0:	1cd8      	adds	r0, r3, #3
  uint16_t remaining_bytes = wNBytes % 4U;
 80028b2:	4023      	ands	r3, r4
  uint8_t *pBuf = pbUsrBuf;

  /* Get the PMA Buffer pointer */
  pdwVal = (__IO uint32_t *)(USB_DRD_PMAADDR + (uint32_t)wPMABufAddr);
 80028b4:	4c11      	ldr	r4, [pc, #68]	@ (80028fc <USB_ReadPMA+0x50>)
  uint32_t NbWords = ((uint32_t)wNBytes + 3U) >> 2U;
 80028b6:	0880      	lsrs	r0, r0, #2
  pdwVal = (__IO uint32_t *)(USB_DRD_PMAADDR + (uint32_t)wPMABufAddr);
 80028b8:	1912      	adds	r2, r2, r4

  /* if nbre of byte is not word aligned decrement the nbre of word*/
  if (remaining_bytes != 0U)
  {
    NbWords--;
 80028ba:	001c      	movs	r4, r3
 80028bc:	1e65      	subs	r5, r4, #1
 80028be:	41ac      	sbcs	r4, r5
{
 80028c0:	0016      	movs	r6, r2
    NbWords--;
 80028c2:	1b00      	subs	r0, r0, r4
 80028c4:	0084      	lsls	r4, r0, #2
 80028c6:	190d      	adds	r5, r1, r4
  }

  /*Read the Calculated Word From the PMA related Buffer*/
  for (count = NbWords; count != 0U; count--)
 80028c8:	42a9      	cmp	r1, r5
 80028ca:	d10d      	bne.n	80028e8 <USB_ReadPMA+0x3c>
    pBuf++;
    pBuf++;
  }

  /*When Number of data is not word aligned, read the remaining byte*/
  if (remaining_bytes != 0U)
 80028cc:	2b00      	cmp	r3, #0
 80028ce:	d00a      	beq.n	80028e6 <USB_ReadPMA+0x3a>
  {
    RdVal = *(__IO uint32_t *)pdwVal;
 80028d0:	1912      	adds	r2, r2, r4
 80028d2:	6810      	ldr	r0, [r2, #0]
 80028d4:	2200      	movs	r2, #0

    do
    {
      *(uint8_t *)pBuf = (uint8_t)(RdVal >> (8U * (uint8_t)(count)));
 80028d6:	0004      	movs	r4, r0
 80028d8:	00d1      	lsls	r1, r2, #3
 80028da:	40cc      	lsrs	r4, r1
 80028dc:	54ac      	strb	r4, [r5, r2]
      count++;
 80028de:	3201      	adds	r2, #1
      pBuf++;
      remaining_bytes--;
    } while (remaining_bytes != 0U);
 80028e0:	b291      	uxth	r1, r2
 80028e2:	428b      	cmp	r3, r1
 80028e4:	d1f7      	bne.n	80028d6 <USB_ReadPMA+0x2a>
  }
}
 80028e6:	bdf0      	pop	{r4, r5, r6, r7, pc}
    __UNALIGNED_UINT32_WRITE(pBuf, *pdwVal);
 80028e8:	ce01      	ldmia	r6!, {r0}
 80028ea:	0a07      	lsrs	r7, r0, #8
 80028ec:	7008      	strb	r0, [r1, #0]
 80028ee:	704f      	strb	r7, [r1, #1]
 80028f0:	0c07      	lsrs	r7, r0, #16
 80028f2:	0e00      	lsrs	r0, r0, #24
 80028f4:	708f      	strb	r7, [r1, #2]
 80028f6:	70c8      	strb	r0, [r1, #3]
    pBuf++;
 80028f8:	3104      	adds	r1, #4
  for (count = NbWords; count != 0U; count--)
 80028fa:	e7e5      	b.n	80028c8 <USB_ReadPMA+0x1c>
 80028fc:	40009800 	.word	0x40009800

08002900 <USBD_Init>:
  * @param  id: Low level core index
  * @retval None
  */
USBD_StatusTypeDef USBD_Init(USBD_HandleTypeDef *pdev,
                             USBD_DescriptorsTypeDef *pdesc, uint8_t id)
{
 8002900:	0003      	movs	r3, r0
 8002902:	b510      	push	{r4, lr}
  if (pdev == NULL)
  {
#if (USBD_DEBUG_LEVEL > 1U)
    USBD_ErrLog("Invalid Device handle");
#endif /* (USBD_DEBUG_LEVEL > 1U) */
    return USBD_FAIL;
 8002904:	2003      	movs	r0, #3
  if (pdev == NULL)
 8002906:	2b00      	cmp	r3, #0
 8002908:	d014      	beq.n	8002934 <USBD_Init+0x34>
    pdev->NumClasses = 0;
    pdev->classId = 0;
  }
#else
  /* Unlink previous class*/
  pdev->pClass[0] = NULL;
 800290a:	24ae      	movs	r4, #174	@ 0xae
 800290c:	2000      	movs	r0, #0
 800290e:	00a4      	lsls	r4, r4, #2
 8002910:	5118      	str	r0, [r3, r4]
  pdev->pUserData[0] = NULL;
 8002912:	340c      	adds	r4, #12
 8002914:	5118      	str	r0, [r3, r4]
#endif /* USE_USBD_COMPOSITE */

  pdev->pConfDesc = NULL;
 8002916:	340c      	adds	r4, #12
 8002918:	5118      	str	r0, [r3, r4]

  /* Assign USBD Descriptors */
  if (pdesc != NULL)
 800291a:	4281      	cmp	r1, r0
 800291c:	d002      	beq.n	8002924 <USBD_Init+0x24>
  {
    pdev->pDesc = pdesc;
 800291e:	20ad      	movs	r0, #173	@ 0xad
 8002920:	0080      	lsls	r0, r0, #2
 8002922:	5019      	str	r1, [r3, r0]
  }

  /* Set Device initial State */
  pdev->dev_state = USBD_STATE_DEFAULT;
 8002924:	21a7      	movs	r1, #167	@ 0xa7
 8002926:	2001      	movs	r0, #1
 8002928:	0089      	lsls	r1, r1, #2
 800292a:	5458      	strb	r0, [r3, r1]
  pdev->id = id;

  /* Initialize low level driver */
  ret = USBD_LL_Init(pdev);
 800292c:	0018      	movs	r0, r3
  pdev->id = id;
 800292e:	701a      	strb	r2, [r3, #0]
  ret = USBD_LL_Init(pdev);
 8002930:	f000 fd82 	bl	8003438 <USBD_LL_Init>

  return ret;
}
 8002934:	bd10      	pop	{r4, pc}

08002936 <USBD_RegisterClass>:
  * @param  pDevice : Device Handle
  * @param  pclass: Class handle
  * @retval USBD Status
  */
USBD_StatusTypeDef USBD_RegisterClass(USBD_HandleTypeDef *pdev, USBD_ClassTypeDef *pclass)
{
 8002936:	b513      	push	{r0, r1, r4, lr}
  uint16_t len = 0U;
 8002938:	466b      	mov	r3, sp
{
 800293a:	0004      	movs	r4, r0
  uint16_t len = 0U;
 800293c:	1d98      	adds	r0, r3, #6
 800293e:	2300      	movs	r3, #0
 8002940:	8003      	strh	r3, [r0, #0]
  if (pclass == NULL)
  {
#if (USBD_DEBUG_LEVEL > 1U)
    USBD_ErrLog("Invalid Class handle");
#endif /* (USBD_DEBUG_LEVEL > 1U) */
    return USBD_FAIL;
 8002942:	3303      	adds	r3, #3
  if (pclass == NULL)
 8002944:	2900      	cmp	r1, #0
 8002946:	d00f      	beq.n	8002968 <USBD_RegisterClass+0x32>
  }

  /* link the class to the USB Device handle */
  pdev->pClass[0] = pclass;
 8002948:	23ae      	movs	r3, #174	@ 0xae
 800294a:	009b      	lsls	r3, r3, #2
 800294c:	50e1      	str	r1, [r4, r3]
  if (pdev->pClass[pdev->classId]->GetHSConfigDescriptor != NULL)
  {
    pdev->pConfDesc = (void *)pdev->pClass[pdev->classId]->GetHSConfigDescriptor(&len);
  }
#else /* Default USE_USB_FS */
  if (pdev->pClass[pdev->classId]->GetFSConfigDescriptor != NULL)
 800294e:	6acb      	ldr	r3, [r1, #44]	@ 0x2c
 8002950:	2b00      	cmp	r3, #0
 8002952:	d003      	beq.n	800295c <USBD_RegisterClass+0x26>
  {
    pdev->pConfDesc = (void *)pdev->pClass[pdev->classId]->GetFSConfigDescriptor(&len);
 8002954:	4798      	blx	r3
 8002956:	23b4      	movs	r3, #180	@ 0xb4
 8002958:	009b      	lsls	r3, r3, #2
 800295a:	50e0      	str	r0, [r4, r3]
  }
#endif /* USE_USB_FS */

  /* Increment the NumClasses */
  pdev->NumClasses ++;
 800295c:	22b6      	movs	r2, #182	@ 0xb6
 800295e:	0092      	lsls	r2, r2, #2
 8002960:	58a3      	ldr	r3, [r4, r2]
 8002962:	3301      	adds	r3, #1
 8002964:	50a3      	str	r3, [r4, r2]

  return USBD_OK;
 8002966:	2300      	movs	r3, #0
}
 8002968:	0018      	movs	r0, r3
 800296a:	bd16      	pop	{r1, r2, r4, pc}

0800296c <USBD_Start>:
  *         Start the USB Device Core.
  * @param  pdev: Device Handle
  * @retval USBD Status
  */
USBD_StatusTypeDef USBD_Start(USBD_HandleTypeDef *pdev)
{
 800296c:	b510      	push	{r4, lr}
#ifdef USE_USBD_COMPOSITE
  pdev->classId = 0U;
#endif /* USE_USBD_COMPOSITE */

  /* Start the low level driver  */
  return USBD_LL_Start(pdev);
 800296e:	f000 fd99 	bl	80034a4 <USBD_LL_Start>
}
 8002972:	bd10      	pop	{r4, pc}

08002974 <USBD_SetClassConfig>:
        }
      }
    }
  }
#else
  if (pdev->pClass[0] != NULL)
 8002974:	23ae      	movs	r3, #174	@ 0xae
 8002976:	009b      	lsls	r3, r3, #2
 8002978:	58c2      	ldr	r2, [r0, r3]
{
 800297a:	b510      	push	{r4, lr}
  USBD_StatusTypeDef ret = USBD_OK;
 800297c:	1e13      	subs	r3, r2, #0
  if (pdev->pClass[0] != NULL)
 800297e:	d002      	beq.n	8002986 <USBD_SetClassConfig+0x12>
  {
    /* Set configuration and Start the Class */
    ret = (USBD_StatusTypeDef)pdev->pClass[0]->Init(pdev, cfgidx);
 8002980:	6813      	ldr	r3, [r2, #0]
 8002982:	4798      	blx	r3
 8002984:	0003      	movs	r3, r0
  }
#endif /* USE_USBD_COMPOSITE */

  return ret;
}
 8002986:	0018      	movs	r0, r3
 8002988:	bd10      	pop	{r4, pc}

0800298a <USBD_ClrClassConfig>:
      }
    }
  }
#else
  /* Clear configuration  and De-initialize the Class process */
  if (pdev->pClass[0]->DeInit(pdev, cfgidx) != 0U)
 800298a:	23ae      	movs	r3, #174	@ 0xae
 800298c:	009b      	lsls	r3, r3, #2
 800298e:	58c3      	ldr	r3, [r0, r3]
{
 8002990:	b510      	push	{r4, lr}
  if (pdev->pClass[0]->DeInit(pdev, cfgidx) != 0U)
 8002992:	685b      	ldr	r3, [r3, #4]
 8002994:	4798      	blx	r3
 8002996:	2800      	cmp	r0, #0
 8002998:	d000      	beq.n	800299c <USBD_ClrClassConfig+0x12>
  {
    ret = USBD_FAIL;
 800299a:	2003      	movs	r0, #3
  }
#endif /* USE_USBD_COMPOSITE */

  return ret;
}
 800299c:	bd10      	pop	{r4, pc}
	...

080029a0 <USBD_LL_SetupStage>:
  */
USBD_StatusTypeDef USBD_LL_SetupStage(USBD_HandleTypeDef *pdev, uint8_t *psetup)
{
  USBD_StatusTypeDef ret;

  USBD_ParseSetupRequest(&pdev->request, psetup);
 80029a0:	4b16      	ldr	r3, [pc, #88]	@ (80029fc <USBD_LL_SetupStage+0x5c>)
{
 80029a2:	b570      	push	{r4, r5, r6, lr}
  USBD_ParseSetupRequest(&pdev->request, psetup);
 80029a4:	18c5      	adds	r5, r0, r3
{
 80029a6:	0004      	movs	r4, r0
  USBD_ParseSetupRequest(&pdev->request, psetup);
 80029a8:	0028      	movs	r0, r5
 80029aa:	f000 fb8b 	bl	80030c4 <USBD_ParseSetupRequest>

  pdev->ep0_state = USBD_EP0_SETUP;
 80029ae:	23a5      	movs	r3, #165	@ 0xa5
 80029b0:	2201      	movs	r2, #1
 80029b2:	009b      	lsls	r3, r3, #2
 80029b4:	50e2      	str	r2, [r4, r3]

  pdev->ep0_data_len = pdev->request.wLength;
 80029b6:	331c      	adds	r3, #28
 80029b8:	5ae2      	ldrh	r2, [r4, r3]
 80029ba:	3b18      	subs	r3, #24
 80029bc:	50e2      	str	r2, [r4, r3]

  switch (pdev->request.bmRequest & 0x1FU)
 80029be:	4b0f      	ldr	r3, [pc, #60]	@ (80029fc <USBD_LL_SetupStage+0x5c>)
 80029c0:	5ce1      	ldrb	r1, [r4, r3]
 80029c2:	231f      	movs	r3, #31
 80029c4:	400b      	ands	r3, r1
 80029c6:	2b01      	cmp	r3, #1
 80029c8:	d008      	beq.n	80029dc <USBD_LL_SetupStage+0x3c>
 80029ca:	2b02      	cmp	r3, #2
 80029cc:	d00b      	beq.n	80029e6 <USBD_LL_SetupStage+0x46>
 80029ce:	2b00      	cmp	r3, #0
 80029d0:	d10e      	bne.n	80029f0 <USBD_LL_SetupStage+0x50>
  {
    case USB_REQ_RECIPIENT_DEVICE:
      ret = USBD_StdDevReq(pdev, &pdev->request);
 80029d2:	0029      	movs	r1, r5
 80029d4:	0020      	movs	r0, r4
 80029d6:	f000 f927 	bl	8002c28 <USBD_StdDevReq>
      ret = USBD_LL_StallEP(pdev, (pdev->request.bmRequest & 0x80U));
      break;
  }

  return ret;
}
 80029da:	bd70      	pop	{r4, r5, r6, pc}
      ret = USBD_StdItfReq(pdev, &pdev->request);
 80029dc:	0029      	movs	r1, r5
 80029de:	0020      	movs	r0, r4
 80029e0:	f000 fa8c 	bl	8002efc <USBD_StdItfReq>
      break;
 80029e4:	e7f9      	b.n	80029da <USBD_LL_SetupStage+0x3a>
      ret = USBD_StdEPReq(pdev, &pdev->request);
 80029e6:	0029      	movs	r1, r5
 80029e8:	0020      	movs	r0, r4
 80029ea:	f000 fabc 	bl	8002f66 <USBD_StdEPReq>
      break;
 80029ee:	e7f4      	b.n	80029da <USBD_LL_SetupStage+0x3a>
      ret = USBD_LL_StallEP(pdev, (pdev->request.bmRequest & 0x80U));
 80029f0:	237f      	movs	r3, #127	@ 0x7f
 80029f2:	0020      	movs	r0, r4
 80029f4:	4399      	bics	r1, r3
 80029f6:	f000 fd73 	bl	80034e0 <USBD_LL_StallEP>
      break;
 80029fa:	e7ee      	b.n	80029da <USBD_LL_SetupStage+0x3a>
 80029fc:	000002aa 	.word	0x000002aa

08002a00 <USBD_LL_DataOutStage>:
  * @param  pdata: data pointer
  * @retval status
  */
USBD_StatusTypeDef USBD_LL_DataOutStage(USBD_HandleTypeDef *pdev,
                                        uint8_t epnum, uint8_t *pdata)
{
 8002a00:	b570      	push	{r4, r5, r6, lr}
 8002a02:	0004      	movs	r4, r0
 8002a04:	0010      	movs	r0, r2
  USBD_EndpointTypeDef *pep;
  USBD_StatusTypeDef ret = USBD_OK;
  uint8_t idx;

  if (epnum == 0U)
 8002a06:	2900      	cmp	r1, #0
 8002a08:	d12a      	bne.n	8002a60 <USBD_LL_DataOutStage+0x60>
  {
    pep = &pdev->ep_out[0];

    if (pdev->ep0_state == USBD_EP0_DATA_OUT)
 8002a0a:	23a5      	movs	r3, #165	@ 0xa5
 8002a0c:	009b      	lsls	r3, r3, #2
 8002a0e:	58e3      	ldr	r3, [r4, r3]
 8002a10:	2b03      	cmp	r3, #3
 8002a12:	d10f      	bne.n	8002a34 <USBD_LL_DataOutStage+0x34>
    {
      if (pep->rem_length > pep->maxpacket)
 8002a14:	0025      	movs	r5, r4
 8002a16:	3555      	adds	r5, #85	@ 0x55
 8002a18:	35ff      	adds	r5, #255	@ 0xff
 8002a1a:	68ab      	ldr	r3, [r5, #8]
 8002a1c:	68ea      	ldr	r2, [r5, #12]
 8002a1e:	4293      	cmp	r3, r2
 8002a20:	d90a      	bls.n	8002a38 <USBD_LL_DataOutStage+0x38>
      {
        pep->rem_length -= pep->maxpacket;
 8002a22:	1a9b      	subs	r3, r3, r2
 8002a24:	60ab      	str	r3, [r5, #8]

        (void)USBD_CtlContinueRx(pdev, pdata, MIN(pep->rem_length, pep->maxpacket));
 8002a26:	429a      	cmp	r2, r3
 8002a28:	d900      	bls.n	8002a2c <USBD_LL_DataOutStage+0x2c>
 8002a2a:	001a      	movs	r2, r3
 8002a2c:	0001      	movs	r1, r0
 8002a2e:	0020      	movs	r0, r4
 8002a30:	f000 fb99 	bl	8003166 <USBD_CtlContinueRx>
        return ret;
      }
    }
  }

  return USBD_OK;
 8002a34:	2000      	movs	r0, #0
}
 8002a36:	bd70      	pop	{r4, r5, r6, pc}
          if (pdev->dev_state == USBD_STATE_CONFIGURED)
 8002a38:	23a7      	movs	r3, #167	@ 0xa7
 8002a3a:	009b      	lsls	r3, r3, #2
 8002a3c:	5ce3      	ldrb	r3, [r4, r3]
 8002a3e:	2b03      	cmp	r3, #3
 8002a40:	d10a      	bne.n	8002a58 <USBD_LL_DataOutStage+0x58>
            if (pdev->pClass[idx]->EP0_RxReady != NULL)
 8002a42:	23ae      	movs	r3, #174	@ 0xae
 8002a44:	009b      	lsls	r3, r3, #2
 8002a46:	58e3      	ldr	r3, [r4, r3]
 8002a48:	691b      	ldr	r3, [r3, #16]
 8002a4a:	2b00      	cmp	r3, #0
 8002a4c:	d004      	beq.n	8002a58 <USBD_LL_DataOutStage+0x58>
              pdev->classId = idx;
 8002a4e:	22b5      	movs	r2, #181	@ 0xb5
 8002a50:	0092      	lsls	r2, r2, #2
              pdev->pClass[idx]->EP0_RxReady(pdev);
 8002a52:	0020      	movs	r0, r4
              pdev->classId = idx;
 8002a54:	50a1      	str	r1, [r4, r2]
              pdev->pClass[idx]->EP0_RxReady(pdev);
 8002a56:	4798      	blx	r3
        (void)USBD_CtlSendStatus(pdev);
 8002a58:	0020      	movs	r0, r4
 8002a5a:	f000 fb8c 	bl	8003176 <USBD_CtlSendStatus>
 8002a5e:	e7e9      	b.n	8002a34 <USBD_LL_DataOutStage+0x34>
      if (pdev->dev_state == USBD_STATE_CONFIGURED)
 8002a60:	23a7      	movs	r3, #167	@ 0xa7
 8002a62:	009b      	lsls	r3, r3, #2
 8002a64:	5ce3      	ldrb	r3, [r4, r3]
 8002a66:	2b03      	cmp	r3, #3
 8002a68:	d1e4      	bne.n	8002a34 <USBD_LL_DataOutStage+0x34>
        if (pdev->pClass[idx]->DataOut != NULL)
 8002a6a:	23ae      	movs	r3, #174	@ 0xae
 8002a6c:	009b      	lsls	r3, r3, #2
 8002a6e:	58e3      	ldr	r3, [r4, r3]
 8002a70:	699b      	ldr	r3, [r3, #24]
 8002a72:	2b00      	cmp	r3, #0
 8002a74:	d0de      	beq.n	8002a34 <USBD_LL_DataOutStage+0x34>
          pdev->classId = idx;
 8002a76:	22b5      	movs	r2, #181	@ 0xb5
 8002a78:	2000      	movs	r0, #0
 8002a7a:	0092      	lsls	r2, r2, #2
 8002a7c:	50a0      	str	r0, [r4, r2]
          ret = (USBD_StatusTypeDef)pdev->pClass[idx]->DataOut(pdev, epnum);
 8002a7e:	0020      	movs	r0, r4
 8002a80:	4798      	blx	r3
      if (ret != USBD_OK)
 8002a82:	e7d8      	b.n	8002a36 <USBD_LL_DataOutStage+0x36>

08002a84 <USBD_LL_DataInStage>:
  * @param  epnum: endpoint index
  * @retval status
  */
USBD_StatusTypeDef USBD_LL_DataInStage(USBD_HandleTypeDef *pdev,
                                       uint8_t epnum, uint8_t *pdata)
{
 8002a84:	b570      	push	{r4, r5, r6, lr}
 8002a86:	000d      	movs	r5, r1
 8002a88:	0004      	movs	r4, r0
 8002a8a:	0011      	movs	r1, r2
  USBD_EndpointTypeDef *pep;
  USBD_StatusTypeDef ret;
  uint8_t idx;

  if (epnum == 0U)
 8002a8c:	2d00      	cmp	r5, #0
 8002a8e:	d144      	bne.n	8002b1a <USBD_LL_DataInStage+0x96>
  {
    pep = &pdev->ep_in[0];

    if (pdev->ep0_state == USBD_EP0_DATA_IN)
 8002a90:	23a5      	movs	r3, #165	@ 0xa5
 8002a92:	009b      	lsls	r3, r3, #2
 8002a94:	58c3      	ldr	r3, [r0, r3]
 8002a96:	2b02      	cmp	r3, #2
 8002a98:	d10d      	bne.n	8002ab6 <USBD_LL_DataInStage+0x32>
    {
      if (pep->rem_length > pep->maxpacket)
 8002a9a:	69c3      	ldr	r3, [r0, #28]
 8002a9c:	6a02      	ldr	r2, [r0, #32]
 8002a9e:	4293      	cmp	r3, r2
 8002aa0:	d912      	bls.n	8002ac8 <USBD_LL_DataInStage+0x44>
      {
        pep->rem_length -= pep->maxpacket;
 8002aa2:	1a9a      	subs	r2, r3, r2
 8002aa4:	61c2      	str	r2, [r0, #28]

        (void)USBD_CtlContinueSendData(pdev, pdata, pep->rem_length);
 8002aa6:	f000 fb56 	bl	8003156 <USBD_CtlContinueSendData>
        {
          (void)USBD_CtlContinueSendData(pdev, NULL, 0U);
          pdev->ep0_data_len = 0U;

          /* Prepare endpoint for premature end of transfer */
          (void)USBD_LL_PrepareReceive(pdev, 0U, NULL, 0U);
 8002aaa:	002b      	movs	r3, r5
 8002aac:	002a      	movs	r2, r5
 8002aae:	0029      	movs	r1, r5
 8002ab0:	0020      	movs	r0, r4
 8002ab2:	f000 fd4c 	bl	800354e <USBD_LL_PrepareReceive>
          (void)USBD_CtlReceiveStatus(pdev);
        }
      }
    }

    if (pdev->dev_test_mode != 0U)
 8002ab6:	23a8      	movs	r3, #168	@ 0xa8
 8002ab8:	009b      	lsls	r3, r3, #2
 8002aba:	5ce2      	ldrb	r2, [r4, r3]
 8002abc:	2a00      	cmp	r2, #0
 8002abe:	d001      	beq.n	8002ac4 <USBD_LL_DataInStage+0x40>
    {
      (void)USBD_RunTestMode(pdev);
      pdev->dev_test_mode = 0U;
 8002ac0:	2200      	movs	r2, #0
 8002ac2:	54e2      	strb	r2, [r4, r3]
        }
      }
    }
  }

  return USBD_OK;
 8002ac4:	2000      	movs	r0, #0
}
 8002ac6:	bd70      	pop	{r4, r5, r6, pc}
        if ((pep->maxpacket == pep->rem_length) &&
 8002ac8:	4293      	cmp	r3, r2
 8002aca:	d10d      	bne.n	8002ae8 <USBD_LL_DataInStage+0x64>
            (pep->total_length >= pep->maxpacket) &&
 8002acc:	6982      	ldr	r2, [r0, #24]
        if ((pep->maxpacket == pep->rem_length) &&
 8002ace:	4293      	cmp	r3, r2
 8002ad0:	d80a      	bhi.n	8002ae8 <USBD_LL_DataInStage+0x64>
            (pep->total_length < pdev->ep0_data_len))
 8002ad2:	26a6      	movs	r6, #166	@ 0xa6
 8002ad4:	00b6      	lsls	r6, r6, #2
            (pep->total_length >= pep->maxpacket) &&
 8002ad6:	5983      	ldr	r3, [r0, r6]
 8002ad8:	429a      	cmp	r2, r3
 8002ada:	d205      	bcs.n	8002ae8 <USBD_LL_DataInStage+0x64>
          (void)USBD_CtlContinueSendData(pdev, NULL, 0U);
 8002adc:	002a      	movs	r2, r5
 8002ade:	0029      	movs	r1, r5
 8002ae0:	f000 fb39 	bl	8003156 <USBD_CtlContinueSendData>
          pdev->ep0_data_len = 0U;
 8002ae4:	51a5      	str	r5, [r4, r6]
 8002ae6:	e7e0      	b.n	8002aaa <USBD_LL_DataInStage+0x26>
          if (pdev->dev_state == USBD_STATE_CONFIGURED)
 8002ae8:	23a7      	movs	r3, #167	@ 0xa7
 8002aea:	009b      	lsls	r3, r3, #2
 8002aec:	5ce3      	ldrb	r3, [r4, r3]
 8002aee:	2b03      	cmp	r3, #3
 8002af0:	d10b      	bne.n	8002b0a <USBD_LL_DataInStage+0x86>
            if (pdev->pClass[0]->EP0_TxSent != NULL)
 8002af2:	23ae      	movs	r3, #174	@ 0xae
 8002af4:	009b      	lsls	r3, r3, #2
 8002af6:	58e3      	ldr	r3, [r4, r3]
 8002af8:	68db      	ldr	r3, [r3, #12]
 8002afa:	2b00      	cmp	r3, #0
 8002afc:	d005      	beq.n	8002b0a <USBD_LL_DataInStage+0x86>
              pdev->classId = 0U;
 8002afe:	22b5      	movs	r2, #181	@ 0xb5
 8002b00:	2100      	movs	r1, #0
 8002b02:	0092      	lsls	r2, r2, #2
              pdev->pClass[0]->EP0_TxSent(pdev);
 8002b04:	0020      	movs	r0, r4
              pdev->classId = 0U;
 8002b06:	50a1      	str	r1, [r4, r2]
              pdev->pClass[0]->EP0_TxSent(pdev);
 8002b08:	4798      	blx	r3
          (void)USBD_LL_StallEP(pdev, 0x80U);
 8002b0a:	2180      	movs	r1, #128	@ 0x80
 8002b0c:	0020      	movs	r0, r4
 8002b0e:	f000 fce7 	bl	80034e0 <USBD_LL_StallEP>
          (void)USBD_CtlReceiveStatus(pdev);
 8002b12:	0020      	movs	r0, r4
 8002b14:	f000 fb3b 	bl	800318e <USBD_CtlReceiveStatus>
 8002b18:	e7cd      	b.n	8002ab6 <USBD_LL_DataInStage+0x32>
      if (pdev->dev_state == USBD_STATE_CONFIGURED)
 8002b1a:	23a7      	movs	r3, #167	@ 0xa7
 8002b1c:	009b      	lsls	r3, r3, #2
 8002b1e:	5cc3      	ldrb	r3, [r0, r3]
 8002b20:	2b03      	cmp	r3, #3
 8002b22:	d1cf      	bne.n	8002ac4 <USBD_LL_DataInStage+0x40>
        if (pdev->pClass[idx]->DataIn != NULL)
 8002b24:	23ae      	movs	r3, #174	@ 0xae
 8002b26:	009b      	lsls	r3, r3, #2
 8002b28:	58c3      	ldr	r3, [r0, r3]
 8002b2a:	695b      	ldr	r3, [r3, #20]
 8002b2c:	2b00      	cmp	r3, #0
 8002b2e:	d0c9      	beq.n	8002ac4 <USBD_LL_DataInStage+0x40>
          pdev->classId = idx;
 8002b30:	22b5      	movs	r2, #181	@ 0xb5
 8002b32:	2100      	movs	r1, #0
 8002b34:	0092      	lsls	r2, r2, #2
 8002b36:	5081      	str	r1, [r0, r2]
          ret = (USBD_StatusTypeDef)pdev->pClass[idx]->DataIn(pdev, epnum);
 8002b38:	0029      	movs	r1, r5
 8002b3a:	4798      	blx	r3
          if (ret != USBD_OK)
 8002b3c:	e7c3      	b.n	8002ac6 <USBD_LL_DataInStage+0x42>

08002b3e <USBD_LL_Reset>:
  * @param  pdev: device instance
  * @retval status
  */

USBD_StatusTypeDef USBD_LL_Reset(USBD_HandleTypeDef *pdev)
{
 8002b3e:	b5f8      	push	{r3, r4, r5, r6, r7, lr}
  USBD_StatusTypeDef ret = USBD_OK;

  /* Upon Reset call user call back */
  pdev->dev_state = USBD_STATE_DEFAULT;
 8002b40:	23a7      	movs	r3, #167	@ 0xa7
 8002b42:	2201      	movs	r2, #1
  pdev->ep0_state = USBD_EP0_IDLE;
 8002b44:	2100      	movs	r1, #0
  pdev->dev_state = USBD_STATE_DEFAULT;
 8002b46:	009b      	lsls	r3, r3, #2
 8002b48:	54c2      	strb	r2, [r0, r3]
  pdev->ep0_state = USBD_EP0_IDLE;
 8002b4a:	3b08      	subs	r3, #8
 8002b4c:	50c1      	str	r1, [r0, r3]
  pdev->dev_config = 0U;
  pdev->dev_remote_wakeup = 0U;
 8002b4e:	3310      	adds	r3, #16
  pdev->dev_config = 0U;
 8002b50:	6041      	str	r1, [r0, #4]
  pdev->dev_remote_wakeup = 0U;
 8002b52:	50c1      	str	r1, [r0, r3]
  pdev->dev_test_mode = 0U;
 8002b54:	3b04      	subs	r3, #4
 8002b56:	54c1      	strb	r1, [r0, r3]
      }
    }
  }
#else

  if (pdev->pClass[0] != NULL)
 8002b58:	3318      	adds	r3, #24
 8002b5a:	58c3      	ldr	r3, [r0, r3]
{
 8002b5c:	0004      	movs	r4, r0
  if (pdev->pClass[0] != NULL)
 8002b5e:	428b      	cmp	r3, r1
 8002b60:	d118      	bne.n	8002b94 <USBD_LL_Reset+0x56>
  USBD_StatusTypeDef ret = USBD_OK;
 8002b62:	2600      	movs	r6, #0
    }
  }
#endif /* USE_USBD_COMPOSITE */

  /* Open EP0 OUT */
  (void)USBD_LL_OpenEP(pdev, 0x00U, USBD_EP_TYPE_CTRL, USB_MAX_EP0_SIZE);
 8002b64:	2200      	movs	r2, #0
 8002b66:	2340      	movs	r3, #64	@ 0x40
 8002b68:	0011      	movs	r1, r2
 8002b6a:	0020      	movs	r0, r4
 8002b6c:	f000 fca3 	bl	80034b6 <USBD_LL_OpenEP>
  pdev->ep_out[0x00U & 0xFU].is_used = 1U;
 8002b70:	23b2      	movs	r3, #178	@ 0xb2
 8002b72:	2701      	movs	r7, #1
 8002b74:	005b      	lsls	r3, r3, #1
 8002b76:	52e7      	strh	r7, [r4, r3]

  pdev->ep_out[0].maxpacket = USB_MAX_EP0_SIZE;
 8002b78:	0023      	movs	r3, r4
 8002b7a:	2540      	movs	r5, #64	@ 0x40
 8002b7c:	33fc      	adds	r3, #252	@ 0xfc
 8002b7e:	665d      	str	r5, [r3, #100]	@ 0x64

  /* Open EP0 IN */
  (void)USBD_LL_OpenEP(pdev, 0x80U, USBD_EP_TYPE_CTRL, USB_MAX_EP0_SIZE);
 8002b80:	2200      	movs	r2, #0
 8002b82:	002b      	movs	r3, r5
 8002b84:	2180      	movs	r1, #128	@ 0x80
 8002b86:	0020      	movs	r0, r4
 8002b88:	f000 fc95 	bl	80034b6 <USBD_LL_OpenEP>
  pdev->ep_in[0x80U & 0xFU].is_used = 1U;

  pdev->ep_in[0].maxpacket = USB_MAX_EP0_SIZE;

  return ret;
}
 8002b8c:	0030      	movs	r0, r6
  pdev->ep_in[0x80U & 0xFU].is_used = 1U;
 8002b8e:	84a7      	strh	r7, [r4, #36]	@ 0x24
  pdev->ep_in[0].maxpacket = USB_MAX_EP0_SIZE;
 8002b90:	6225      	str	r5, [r4, #32]
}
 8002b92:	bdf8      	pop	{r3, r4, r5, r6, r7, pc}
    if (pdev->pClass[0]->DeInit != NULL)
 8002b94:	685b      	ldr	r3, [r3, #4]
 8002b96:	2b00      	cmp	r3, #0
 8002b98:	d0e3      	beq.n	8002b62 <USBD_LL_Reset+0x24>
      if (pdev->pClass[0]->DeInit(pdev, (uint8_t)pdev->dev_config) != USBD_OK)
 8002b9a:	4798      	blx	r3
 8002b9c:	2800      	cmp	r0, #0
 8002b9e:	d0e0      	beq.n	8002b62 <USBD_LL_Reset+0x24>
        ret = USBD_FAIL;
 8002ba0:	2603      	movs	r6, #3
 8002ba2:	e7df      	b.n	8002b64 <USBD_LL_Reset+0x26>

08002ba4 <USBD_LL_SetSpeed>:
  * @retval status
  */
USBD_StatusTypeDef USBD_LL_SetSpeed(USBD_HandleTypeDef *pdev,
                                    USBD_SpeedTypeDef speed)
{
  pdev->dev_speed = speed;
 8002ba4:	7401      	strb	r1, [r0, #16]

  return USBD_OK;
}
 8002ba6:	2000      	movs	r0, #0
 8002ba8:	4770      	bx	lr
	...

08002bac <USBD_LL_Suspend>:
  * @retval status
  */

USBD_StatusTypeDef USBD_LL_Suspend(USBD_HandleTypeDef *pdev)
{
  if (pdev->dev_state != USBD_STATE_SUSPENDED)
 8002bac:	23a7      	movs	r3, #167	@ 0xa7
 8002bae:	009b      	lsls	r3, r3, #2
 8002bb0:	5cc2      	ldrb	r2, [r0, r3]
 8002bb2:	2a04      	cmp	r2, #4
 8002bb4:	d003      	beq.n	8002bbe <USBD_LL_Suspend+0x12>
  {
    pdev->dev_old_state = pdev->dev_state;
 8002bb6:	5cc2      	ldrb	r2, [r0, r3]
 8002bb8:	4903      	ldr	r1, [pc, #12]	@ (8002bc8 <USBD_LL_Suspend+0x1c>)
 8002bba:	b2d2      	uxtb	r2, r2
 8002bbc:	5442      	strb	r2, [r0, r1]
  }

  pdev->dev_state = USBD_STATE_SUSPENDED;
 8002bbe:	2204      	movs	r2, #4
 8002bc0:	54c2      	strb	r2, [r0, r3]

  return USBD_OK;
}
 8002bc2:	2000      	movs	r0, #0
 8002bc4:	4770      	bx	lr
 8002bc6:	46c0      	nop			@ (mov r8, r8)
 8002bc8:	0000029d 	.word	0x0000029d

08002bcc <USBD_LL_Resume>:
  * @retval status
  */

USBD_StatusTypeDef USBD_LL_Resume(USBD_HandleTypeDef *pdev)
{
  if (pdev->dev_state == USBD_STATE_SUSPENDED)
 8002bcc:	22a7      	movs	r2, #167	@ 0xa7
 8002bce:	0092      	lsls	r2, r2, #2
 8002bd0:	5c83      	ldrb	r3, [r0, r2]
 8002bd2:	2b04      	cmp	r3, #4
 8002bd4:	d103      	bne.n	8002bde <USBD_LL_Resume+0x12>
  {
    pdev->dev_state = pdev->dev_old_state;
 8002bd6:	4b03      	ldr	r3, [pc, #12]	@ (8002be4 <USBD_LL_Resume+0x18>)
 8002bd8:	5cc3      	ldrb	r3, [r0, r3]
 8002bda:	b2db      	uxtb	r3, r3
 8002bdc:	5483      	strb	r3, [r0, r2]
  }

  return USBD_OK;
}
 8002bde:	2000      	movs	r0, #0
 8002be0:	4770      	bx	lr
 8002be2:	46c0      	nop			@ (mov r8, r8)
 8002be4:	0000029d 	.word	0x0000029d

08002be8 <USBD_LL_SOF>:
  */

USBD_StatusTypeDef USBD_LL_SOF(USBD_HandleTypeDef *pdev)
{
  /* The SOF event can be distributed for all classes that support it */
  if (pdev->dev_state == USBD_STATE_CONFIGURED)
 8002be8:	23a7      	movs	r3, #167	@ 0xa7
{
 8002bea:	b510      	push	{r4, lr}
  if (pdev->dev_state == USBD_STATE_CONFIGURED)
 8002bec:	009b      	lsls	r3, r3, #2
 8002bee:	5cc3      	ldrb	r3, [r0, r3]
 8002bf0:	2b03      	cmp	r3, #3
 8002bf2:	d108      	bne.n	8002c06 <USBD_LL_SOF+0x1e>
          }
        }
      }
    }
#else
    if (pdev->pClass[0] != NULL)
 8002bf4:	23ae      	movs	r3, #174	@ 0xae
 8002bf6:	009b      	lsls	r3, r3, #2
 8002bf8:	58c3      	ldr	r3, [r0, r3]
 8002bfa:	2b00      	cmp	r3, #0
 8002bfc:	d003      	beq.n	8002c06 <USBD_LL_SOF+0x1e>
    {
      if (pdev->pClass[0]->SOF != NULL)
 8002bfe:	69db      	ldr	r3, [r3, #28]
 8002c00:	2b00      	cmp	r3, #0
 8002c02:	d000      	beq.n	8002c06 <USBD_LL_SOF+0x1e>
      {
        (void)pdev->pClass[0]->SOF(pdev);
 8002c04:	4798      	blx	r3
    }
#endif /* USE_USBD_COMPOSITE */
  }

  return USBD_OK;
}
 8002c06:	2000      	movs	r0, #0
 8002c08:	bd10      	pop	{r4, pc}

08002c0a <USBD_CoreFindIF>:
  UNUSED(pdev);
  UNUSED(index);

  return 0x00U;
#endif /* USE_USBD_COMPOSITE */
}
 8002c0a:	2000      	movs	r0, #0
 8002c0c:	4770      	bx	lr

08002c0e <USBD_CoreFindEP>:
  *         return the class index relative to the selected endpoint
  * @param  pdev: device instance
  * @param  index : selected endpoint number
  * @retval index of the class using the selected endpoint number. 0xFF if no class found.
  */
uint8_t USBD_CoreFindEP(USBD_HandleTypeDef *pdev, uint8_t index)
 8002c0e:	2000      	movs	r0, #0
 8002c10:	4770      	bx	lr

08002c12 <USBD_CtlError.constprop.0>:
  *         Handle USB low level Error
  * @param  pdev: device instance
  * @param  req: usb request
  * @retval None
  */
void USBD_CtlError(USBD_HandleTypeDef *pdev, USBD_SetupReqTypedef *req)
 8002c12:	b510      	push	{r4, lr}
 8002c14:	0004      	movs	r4, r0
{
  UNUSED(req);

  (void)USBD_LL_StallEP(pdev, 0x80U);
 8002c16:	2180      	movs	r1, #128	@ 0x80
 8002c18:	f000 fc62 	bl	80034e0 <USBD_LL_StallEP>
  (void)USBD_LL_StallEP(pdev, 0U);
 8002c1c:	2100      	movs	r1, #0
 8002c1e:	0020      	movs	r0, r4
 8002c20:	f000 fc5e 	bl	80034e0 <USBD_LL_StallEP>
}
 8002c24:	bd10      	pop	{r4, pc}
	...

08002c28 <USBD_StdDevReq>:
{
 8002c28:	b5f7      	push	{r0, r1, r2, r4, r5, r6, r7, lr}
 8002c2a:	2260      	movs	r2, #96	@ 0x60
 8002c2c:	780b      	ldrb	r3, [r1, #0]
 8002c2e:	000d      	movs	r5, r1
 8002c30:	4013      	ands	r3, r2
  switch (req->bmRequest & USB_REQ_TYPE_MASK)
 8002c32:	0019      	movs	r1, r3
 8002c34:	1892      	adds	r2, r2, r2
 8002c36:	3920      	subs	r1, #32
{
 8002c38:	0004      	movs	r4, r0
  switch (req->bmRequest & USB_REQ_TYPE_MASK)
 8002c3a:	4211      	tst	r1, r2
 8002c3c:	d006      	beq.n	8002c4c <USBD_StdDevReq+0x24>
 8002c3e:	2b00      	cmp	r3, #0
 8002c40:	d010      	beq.n	8002c64 <USBD_StdDevReq+0x3c>
      USBD_CtlError(pdev, req);
 8002c42:	0020      	movs	r0, r4
 8002c44:	f7ff ffe5 	bl	8002c12 <USBD_CtlError.constprop.0>
  USBD_StatusTypeDef ret = USBD_OK;
 8002c48:	2500      	movs	r5, #0
 8002c4a:	e009      	b.n	8002c60 <USBD_StdDevReq+0x38>
      ret = (USBD_StatusTypeDef)pdev->pClass[pdev->classId]->Setup(pdev, req);
 8002c4c:	23b5      	movs	r3, #181	@ 0xb5
 8002c4e:	009b      	lsls	r3, r3, #2
 8002c50:	58c3      	ldr	r3, [r0, r3]
 8002c52:	0029      	movs	r1, r5
 8002c54:	33ae      	adds	r3, #174	@ 0xae
 8002c56:	009b      	lsls	r3, r3, #2
 8002c58:	581b      	ldr	r3, [r3, r0]
 8002c5a:	689b      	ldr	r3, [r3, #8]
 8002c5c:	4798      	blx	r3
 8002c5e:	0005      	movs	r5, r0
}
 8002c60:	0028      	movs	r0, r5
 8002c62:	bdfe      	pop	{r1, r2, r3, r4, r5, r6, r7, pc}
      switch (req->bRequest)
 8002c64:	7868      	ldrb	r0, [r5, #1]
 8002c66:	2809      	cmp	r0, #9
 8002c68:	d8eb      	bhi.n	8002c42 <USBD_StdDevReq+0x1a>
 8002c6a:	f7fd fa67 	bl	800013c <__gnu_thumb1_case_shi>
 8002c6e:	010b      	.short	0x010b
 8002c70:	ffea0132 	.word	0xffea0132
 8002c74:	ffea0122 	.word	0xffea0122
 8002c78:	000a0080 	.word	0x000a0080
 8002c7c:	00f4ffea 	.word	0x00f4ffea
 8002c80:	00a2      	.short	0x00a2
  uint16_t len = 0U;
 8002c82:	2300      	movs	r3, #0
 8002c84:	466a      	mov	r2, sp
 8002c86:	80d3      	strh	r3, [r2, #6]
  switch (req->wValue >> 8)
 8002c88:	886b      	ldrh	r3, [r5, #2]
 8002c8a:	0a18      	lsrs	r0, r3, #8
 8002c8c:	3801      	subs	r0, #1
 8002c8e:	280e      	cmp	r0, #14
 8002c90:	d8d7      	bhi.n	8002c42 <USBD_StdDevReq+0x1a>
 8002c92:	f7fd fa3f 	bl	8000114 <__gnu_thumb1_case_sqi>
 8002c96:	2c10      	.short	0x2c10
 8002c98:	53d6d63b 	.word	0x53d6d63b
 8002c9c:	d6d6d65f 	.word	0xd6d6d65f
 8002ca0:	d6d6d6d6 	.word	0xd6d6d6d6
 8002ca4:	08          	.byte	0x08
 8002ca5:	00          	.byte	0x00
      if (pdev->pDesc->GetBOSDescriptor != NULL)
 8002ca6:	23ad      	movs	r3, #173	@ 0xad
 8002ca8:	009b      	lsls	r3, r3, #2
 8002caa:	58e3      	ldr	r3, [r4, r3]
 8002cac:	69db      	ldr	r3, [r3, #28]
          if (pdev->pDesc->GetInterfaceStrDescriptor != NULL)
 8002cae:	2b00      	cmp	r3, #0
 8002cb0:	d0c7      	beq.n	8002c42 <USBD_StdDevReq+0x1a>
            pbuf = pdev->pDesc->GetInterfaceStrDescriptor(pdev->dev_speed, &len);
 8002cb2:	7c20      	ldrb	r0, [r4, #16]
 8002cb4:	e004      	b.n	8002cc0 <USBD_StdDevReq+0x98>
      pbuf = pdev->pDesc->GetDeviceDescriptor(pdev->dev_speed, &len);
 8002cb6:	23ad      	movs	r3, #173	@ 0xad
 8002cb8:	009b      	lsls	r3, r3, #2
 8002cba:	58e3      	ldr	r3, [r4, r3]
 8002cbc:	7c20      	ldrb	r0, [r4, #16]
 8002cbe:	681b      	ldr	r3, [r3, #0]
 8002cc0:	466a      	mov	r2, sp
 8002cc2:	1d91      	adds	r1, r2, #6
 8002cc4:	4798      	blx	r3
  if (req->wLength != 0U)
 8002cc6:	88e9      	ldrh	r1, [r5, #6]
 8002cc8:	2900      	cmp	r1, #0
 8002cca:	d100      	bne.n	8002cce <USBD_StdDevReq+0xa6>
 8002ccc:	e0a6      	b.n	8002e1c <USBD_StdDevReq+0x1f4>
    if (len != 0U)
 8002cce:	466b      	mov	r3, sp
 8002cd0:	88da      	ldrh	r2, [r3, #6]
 8002cd2:	2a00      	cmp	r2, #0
 8002cd4:	d0b5      	beq.n	8002c42 <USBD_StdDevReq+0x1a>
      len = MIN(len, req->wLength);
 8002cd6:	1c0b      	adds	r3, r1, #0
 8002cd8:	4291      	cmp	r1, r2
 8002cda:	d900      	bls.n	8002cde <USBD_StdDevReq+0xb6>
 8002cdc:	1c13      	adds	r3, r2, #0
 8002cde:	4669      	mov	r1, sp
 8002ce0:	80cb      	strh	r3, [r1, #6]
      (void)USBD_CtlSendData(pdev, pbuf, len);
 8002ce2:	0001      	movs	r1, r0
      len = MIN(len, req->wLength);
 8002ce4:	b29a      	uxth	r2, r3
      (void)USBD_CtlSendData(pdev, (uint8_t *)&pdev->dev_config_status, 2U);
 8002ce6:	0020      	movs	r0, r4
 8002ce8:	f000 fa27 	bl	800313a <USBD_CtlSendData>
      break;
 8002cec:	e7ac      	b.n	8002c48 <USBD_StdDevReq+0x20>
          pbuf = (uint8_t *)pdev->pClass[0]->GetHSConfigDescriptor(&len);
 8002cee:	23ae      	movs	r3, #174	@ 0xae
      if (pdev->dev_speed == USBD_SPEED_HIGH)
 8002cf0:	7c22      	ldrb	r2, [r4, #16]
          pbuf = (uint8_t *)pdev->pClass[0]->GetHSConfigDescriptor(&len);
 8002cf2:	009b      	lsls	r3, r3, #2
 8002cf4:	58e3      	ldr	r3, [r4, r3]
      if (pdev->dev_speed == USBD_SPEED_HIGH)
 8002cf6:	2a00      	cmp	r2, #0
 8002cf8:	d106      	bne.n	8002d08 <USBD_StdDevReq+0xe0>
          pbuf = (uint8_t *)pdev->pClass[0]->GetHSConfigDescriptor(&len);
 8002cfa:	6a9b      	ldr	r3, [r3, #40]	@ 0x28
          pbuf = (uint8_t *)pdev->pClass[0]->GetFSConfigDescriptor(&len);
 8002cfc:	466a      	mov	r2, sp
 8002cfe:	1d90      	adds	r0, r2, #6
 8002d00:	4798      	blx	r3
        pbuf[1] = USB_DESC_TYPE_CONFIGURATION;
 8002d02:	2302      	movs	r3, #2
        pbuf[1] = USB_DESC_TYPE_OTHER_SPEED_CONFIGURATION;
 8002d04:	7043      	strb	r3, [r0, #1]
  if (err != 0U)
 8002d06:	e7de      	b.n	8002cc6 <USBD_StdDevReq+0x9e>
          pbuf = (uint8_t *)pdev->pClass[0]->GetFSConfigDescriptor(&len);
 8002d08:	6adb      	ldr	r3, [r3, #44]	@ 0x2c
 8002d0a:	e7f7      	b.n	8002cfc <USBD_StdDevReq+0xd4>
      switch ((uint8_t)(req->wValue))
 8002d0c:	b2d8      	uxtb	r0, r3
 8002d0e:	2805      	cmp	r0, #5
 8002d10:	d900      	bls.n	8002d14 <USBD_StdDevReq+0xec>
 8002d12:	e796      	b.n	8002c42 <USBD_StdDevReq+0x1a>
 8002d14:	23ad      	movs	r3, #173	@ 0xad
 8002d16:	009b      	lsls	r3, r3, #2
          if (pdev->pDesc->GetInterfaceStrDescriptor != NULL)
 8002d18:	58e3      	ldr	r3, [r4, r3]
      switch ((uint8_t)(req->wValue))
 8002d1a:	f7fd fa05 	bl	8000128 <__gnu_thumb1_case_uqi>
 8002d1e:	0503      	.short	0x0503
 8002d20:	0d0b0907 	.word	0x0d0b0907
          if (pdev->pDesc->GetLangIDStrDescriptor != NULL)
 8002d24:	685b      	ldr	r3, [r3, #4]
 8002d26:	e7c2      	b.n	8002cae <USBD_StdDevReq+0x86>
          if (pdev->pDesc->GetManufacturerStrDescriptor != NULL)
 8002d28:	689b      	ldr	r3, [r3, #8]
 8002d2a:	e7c0      	b.n	8002cae <USBD_StdDevReq+0x86>
          if (pdev->pDesc->GetProductStrDescriptor != NULL)
 8002d2c:	68db      	ldr	r3, [r3, #12]
 8002d2e:	e7be      	b.n	8002cae <USBD_StdDevReq+0x86>
          if (pdev->pDesc->GetSerialStrDescriptor != NULL)
 8002d30:	691b      	ldr	r3, [r3, #16]
 8002d32:	e7bc      	b.n	8002cae <USBD_StdDevReq+0x86>
          if (pdev->pDesc->GetConfigurationStrDescriptor != NULL)
 8002d34:	695b      	ldr	r3, [r3, #20]
 8002d36:	e7ba      	b.n	8002cae <USBD_StdDevReq+0x86>
          if (pdev->pDesc->GetInterfaceStrDescriptor != NULL)
 8002d38:	699b      	ldr	r3, [r3, #24]
 8002d3a:	e7b8      	b.n	8002cae <USBD_StdDevReq+0x86>
      if (pdev->dev_speed == USBD_SPEED_HIGH)
 8002d3c:	7c23      	ldrb	r3, [r4, #16]
 8002d3e:	2b00      	cmp	r3, #0
 8002d40:	d000      	beq.n	8002d44 <USBD_StdDevReq+0x11c>
 8002d42:	e77e      	b.n	8002c42 <USBD_StdDevReq+0x1a>
          pbuf = (uint8_t *)pdev->pClass[0]->GetDeviceQualifierDescriptor(&len);
 8002d44:	23ae      	movs	r3, #174	@ 0xae
 8002d46:	466a      	mov	r2, sp
 8002d48:	009b      	lsls	r3, r3, #2
 8002d4a:	58e3      	ldr	r3, [r4, r3]
 8002d4c:	1d90      	adds	r0, r2, #6
 8002d4e:	6b5b      	ldr	r3, [r3, #52]	@ 0x34
 8002d50:	4798      	blx	r3
  if (err != 0U)
 8002d52:	e7b8      	b.n	8002cc6 <USBD_StdDevReq+0x9e>
      if (pdev->dev_speed == USBD_SPEED_HIGH)
 8002d54:	7c23      	ldrb	r3, [r4, #16]
 8002d56:	2b00      	cmp	r3, #0
 8002d58:	d000      	beq.n	8002d5c <USBD_StdDevReq+0x134>
 8002d5a:	e772      	b.n	8002c42 <USBD_StdDevReq+0x1a>
          pbuf = (uint8_t *)pdev->pClass[0]->GetOtherSpeedConfigDescriptor(&len);
 8002d5c:	23ae      	movs	r3, #174	@ 0xae
 8002d5e:	466a      	mov	r2, sp
 8002d60:	009b      	lsls	r3, r3, #2
 8002d62:	58e3      	ldr	r3, [r4, r3]
 8002d64:	1d90      	adds	r0, r2, #6
 8002d66:	6b1b      	ldr	r3, [r3, #48]	@ 0x30
 8002d68:	4798      	blx	r3
        pbuf[1] = USB_DESC_TYPE_OTHER_SPEED_CONFIGURATION;
 8002d6a:	2307      	movs	r3, #7
 8002d6c:	e7ca      	b.n	8002d04 <USBD_StdDevReq+0xdc>
  if ((req->wIndex == 0U) && (req->wLength == 0U) && (req->wValue < 128U))
 8002d6e:	88ab      	ldrh	r3, [r5, #4]
 8002d70:	2b00      	cmp	r3, #0
 8002d72:	d000      	beq.n	8002d76 <USBD_StdDevReq+0x14e>
 8002d74:	e765      	b.n	8002c42 <USBD_StdDevReq+0x1a>
 8002d76:	88eb      	ldrh	r3, [r5, #6]
 8002d78:	2b00      	cmp	r3, #0
 8002d7a:	d000      	beq.n	8002d7e <USBD_StdDevReq+0x156>
 8002d7c:	e761      	b.n	8002c42 <USBD_StdDevReq+0x1a>
 8002d7e:	886d      	ldrh	r5, [r5, #2]
 8002d80:	2d7f      	cmp	r5, #127	@ 0x7f
 8002d82:	d900      	bls.n	8002d86 <USBD_StdDevReq+0x15e>
 8002d84:	e75d      	b.n	8002c42 <USBD_StdDevReq+0x1a>
    if (pdev->dev_state == USBD_STATE_CONFIGURED)
 8002d86:	26a7      	movs	r6, #167	@ 0xa7
 8002d88:	00b6      	lsls	r6, r6, #2
 8002d8a:	5da3      	ldrb	r3, [r4, r6]
 8002d8c:	2b03      	cmp	r3, #3
 8002d8e:	d100      	bne.n	8002d92 <USBD_StdDevReq+0x16a>
 8002d90:	e757      	b.n	8002c42 <USBD_StdDevReq+0x1a>
      pdev->dev_address = dev_addr;
 8002d92:	4b58      	ldr	r3, [pc, #352]	@ (8002ef4 <USBD_StdDevReq+0x2cc>)
    dev_addr = (uint8_t)(req->wValue) & 0x7FU;
 8002d94:	b2ed      	uxtb	r5, r5
      pdev->dev_address = dev_addr;
 8002d96:	54e5      	strb	r5, [r4, r3]
      (void)USBD_LL_SetUSBAddress(pdev, dev_addr);
 8002d98:	0029      	movs	r1, r5
 8002d9a:	0020      	movs	r0, r4
 8002d9c:	f000 fbc5 	bl	800352a <USBD_LL_SetUSBAddress>
      (void)USBD_CtlSendStatus(pdev);
 8002da0:	0020      	movs	r0, r4
 8002da2:	f000 f9e8 	bl	8003176 <USBD_CtlSendStatus>
        pdev->dev_state = USBD_STATE_ADDRESSED;
 8002da6:	2302      	movs	r3, #2
      if (dev_addr != 0U)
 8002da8:	2d00      	cmp	r5, #0
 8002daa:	d100      	bne.n	8002dae <USBD_StdDevReq+0x186>
        pdev->dev_state = USBD_STATE_DEFAULT;
 8002dac:	2301      	movs	r3, #1
          pdev->dev_state = USBD_STATE_CONFIGURED;
 8002dae:	55a3      	strb	r3, [r4, r6]
 8002db0:	e74a      	b.n	8002c48 <USBD_StdDevReq+0x20>
  cfgidx = (uint8_t)(req->wValue);
 8002db2:	78a9      	ldrb	r1, [r5, #2]
 8002db4:	4d50      	ldr	r5, [pc, #320]	@ (8002ef8 <USBD_StdDevReq+0x2d0>)
 8002db6:	7029      	strb	r1, [r5, #0]
  if (cfgidx > USBD_MAX_NUM_CONFIGURATION)
 8002db8:	2901      	cmp	r1, #1
 8002dba:	d904      	bls.n	8002dc6 <USBD_StdDevReq+0x19e>
    USBD_CtlError(pdev, req);
 8002dbc:	0020      	movs	r0, r4
 8002dbe:	f7ff ff28 	bl	8002c12 <USBD_CtlError.constprop.0>
    return USBD_FAIL;
 8002dc2:	2503      	movs	r5, #3
 8002dc4:	e74c      	b.n	8002c60 <USBD_StdDevReq+0x38>
  switch (pdev->dev_state)
 8002dc6:	26a7      	movs	r6, #167	@ 0xa7
 8002dc8:	00b6      	lsls	r6, r6, #2
 8002dca:	5da3      	ldrb	r3, [r4, r6]
 8002dcc:	b2df      	uxtb	r7, r3
 8002dce:	2b02      	cmp	r3, #2
 8002dd0:	d009      	beq.n	8002de6 <USBD_StdDevReq+0x1be>
 8002dd2:	2f03      	cmp	r7, #3
 8002dd4:	d01a      	beq.n	8002e0c <USBD_StdDevReq+0x1e4>
      USBD_CtlError(pdev, req);
 8002dd6:	0020      	movs	r0, r4
 8002dd8:	f7ff ff1b 	bl	8002c12 <USBD_CtlError.constprop.0>
      (void)USBD_ClrClassConfig(pdev, cfgidx);
 8002ddc:	0020      	movs	r0, r4
 8002dde:	7829      	ldrb	r1, [r5, #0]
 8002de0:	f7ff fdd3 	bl	800298a <USBD_ClrClassConfig>
      break;
 8002de4:	e7ed      	b.n	8002dc2 <USBD_StdDevReq+0x19a>
      if (cfgidx != 0U)
 8002de6:	2900      	cmp	r1, #0
 8002de8:	d018      	beq.n	8002e1c <USBD_StdDevReq+0x1f4>
        pdev->dev_config = cfgidx;
 8002dea:	2101      	movs	r1, #1
        ret = USBD_SetClassConfig(pdev, cfgidx);
 8002dec:	0020      	movs	r0, r4
        pdev->dev_config = cfgidx;
 8002dee:	6061      	str	r1, [r4, #4]
        ret = USBD_SetClassConfig(pdev, cfgidx);
 8002df0:	f7ff fdc0 	bl	8002974 <USBD_SetClassConfig>
 8002df4:	0005      	movs	r5, r0
          USBD_CtlError(pdev, req);
 8002df6:	0020      	movs	r0, r4
        if (ret != USBD_OK)
 8002df8:	2d00      	cmp	r5, #0
 8002dfa:	d003      	beq.n	8002e04 <USBD_StdDevReq+0x1dc>
          USBD_CtlError(pdev, req);
 8002dfc:	f7ff ff09 	bl	8002c12 <USBD_CtlError.constprop.0>
          pdev->dev_state = USBD_STATE_ADDRESSED;
 8002e00:	55a7      	strb	r7, [r4, r6]
 8002e02:	e72d      	b.n	8002c60 <USBD_StdDevReq+0x38>
          (void)USBD_CtlSendStatus(pdev);
 8002e04:	f000 f9b7 	bl	8003176 <USBD_CtlSendStatus>
          pdev->dev_state = USBD_STATE_CONFIGURED;
 8002e08:	2303      	movs	r3, #3
 8002e0a:	e7d0      	b.n	8002dae <USBD_StdDevReq+0x186>
      if (cfgidx == 0U)
 8002e0c:	2900      	cmp	r1, #0
 8002e0e:	d109      	bne.n	8002e24 <USBD_StdDevReq+0x1fc>
        pdev->dev_state = USBD_STATE_ADDRESSED;
 8002e10:	2302      	movs	r3, #2
        (void)USBD_ClrClassConfig(pdev, cfgidx);
 8002e12:	0020      	movs	r0, r4
        pdev->dev_state = USBD_STATE_ADDRESSED;
 8002e14:	55a3      	strb	r3, [r4, r6]
        pdev->dev_config = cfgidx;
 8002e16:	6061      	str	r1, [r4, #4]
        (void)USBD_ClrClassConfig(pdev, cfgidx);
 8002e18:	f7ff fdb7 	bl	800298a <USBD_ClrClassConfig>
        (void)USBD_CtlSendStatus(pdev);
 8002e1c:	0020      	movs	r0, r4
 8002e1e:	f000 f9aa 	bl	8003176 <USBD_CtlSendStatus>
 8002e22:	e711      	b.n	8002c48 <USBD_StdDevReq+0x20>
      else if (cfgidx != pdev->dev_config)
 8002e24:	6861      	ldr	r1, [r4, #4]
 8002e26:	2901      	cmp	r1, #1
 8002e28:	d0f8      	beq.n	8002e1c <USBD_StdDevReq+0x1f4>
        (void)USBD_ClrClassConfig(pdev, (uint8_t)pdev->dev_config);
 8002e2a:	b2c9      	uxtb	r1, r1
 8002e2c:	0020      	movs	r0, r4
 8002e2e:	f7ff fdac 	bl	800298a <USBD_ClrClassConfig>
        pdev->dev_config = cfgidx;
 8002e32:	7829      	ldrb	r1, [r5, #0]
        ret = USBD_SetClassConfig(pdev, cfgidx);
 8002e34:	0020      	movs	r0, r4
        pdev->dev_config = cfgidx;
 8002e36:	6061      	str	r1, [r4, #4]
        ret = USBD_SetClassConfig(pdev, cfgidx);
 8002e38:	f7ff fd9c 	bl	8002974 <USBD_SetClassConfig>
 8002e3c:	1e05      	subs	r5, r0, #0
        if (ret != USBD_OK)
 8002e3e:	d0ed      	beq.n	8002e1c <USBD_StdDevReq+0x1f4>
          USBD_CtlError(pdev, req);
 8002e40:	0020      	movs	r0, r4
 8002e42:	f7ff fee6 	bl	8002c12 <USBD_CtlError.constprop.0>
          (void)USBD_ClrClassConfig(pdev, (uint8_t)pdev->dev_config);
 8002e46:	6861      	ldr	r1, [r4, #4]
 8002e48:	0020      	movs	r0, r4
 8002e4a:	b2c9      	uxtb	r1, r1
 8002e4c:	f7ff fd9d 	bl	800298a <USBD_ClrClassConfig>
          pdev->dev_state = USBD_STATE_ADDRESSED;
 8002e50:	2302      	movs	r3, #2
 8002e52:	55a3      	strb	r3, [r4, r6]
 8002e54:	e704      	b.n	8002c60 <USBD_StdDevReq+0x38>
  if (req->wLength != 1U)
 8002e56:	88ea      	ldrh	r2, [r5, #6]
 8002e58:	2a01      	cmp	r2, #1
 8002e5a:	d000      	beq.n	8002e5e <USBD_StdDevReq+0x236>
 8002e5c:	e6f1      	b.n	8002c42 <USBD_StdDevReq+0x1a>
    switch (pdev->dev_state)
 8002e5e:	23a7      	movs	r3, #167	@ 0xa7
 8002e60:	009b      	lsls	r3, r3, #2
 8002e62:	5ce1      	ldrb	r1, [r4, r3]
 8002e64:	b2cb      	uxtb	r3, r1
 8002e66:	2902      	cmp	r1, #2
 8002e68:	d807      	bhi.n	8002e7a <USBD_StdDevReq+0x252>
 8002e6a:	2b00      	cmp	r3, #0
 8002e6c:	d100      	bne.n	8002e70 <USBD_StdDevReq+0x248>
 8002e6e:	e6e8      	b.n	8002c42 <USBD_StdDevReq+0x1a>
        pdev->dev_default_config = 0U;
 8002e70:	2300      	movs	r3, #0
        (void)USBD_CtlSendData(pdev, (uint8_t *)&pdev->dev_default_config, 1U);
 8002e72:	0021      	movs	r1, r4
        pdev->dev_default_config = 0U;
 8002e74:	60a3      	str	r3, [r4, #8]
        (void)USBD_CtlSendData(pdev, (uint8_t *)&pdev->dev_default_config, 1U);
 8002e76:	3108      	adds	r1, #8
 8002e78:	e735      	b.n	8002ce6 <USBD_StdDevReq+0xbe>
        (void)USBD_CtlSendData(pdev, (uint8_t *)&pdev->dev_config, 1U);
 8002e7a:	1d21      	adds	r1, r4, #4
    switch (pdev->dev_state)
 8002e7c:	2b03      	cmp	r3, #3
 8002e7e:	d100      	bne.n	8002e82 <USBD_StdDevReq+0x25a>
 8002e80:	e731      	b.n	8002ce6 <USBD_StdDevReq+0xbe>
 8002e82:	e6de      	b.n	8002c42 <USBD_StdDevReq+0x1a>
  switch (pdev->dev_state)
 8002e84:	23a7      	movs	r3, #167	@ 0xa7
 8002e86:	009b      	lsls	r3, r3, #2
 8002e88:	5ce3      	ldrb	r3, [r4, r3]
 8002e8a:	3b01      	subs	r3, #1
 8002e8c:	2b02      	cmp	r3, #2
 8002e8e:	d900      	bls.n	8002e92 <USBD_StdDevReq+0x26a>
 8002e90:	e6d7      	b.n	8002c42 <USBD_StdDevReq+0x1a>
      if (req->wLength != 0x2U)
 8002e92:	88eb      	ldrh	r3, [r5, #6]
 8002e94:	2b02      	cmp	r3, #2
 8002e96:	d000      	beq.n	8002e9a <USBD_StdDevReq+0x272>
 8002e98:	e6d3      	b.n	8002c42 <USBD_StdDevReq+0x1a>
      if (pdev->dev_remote_wakeup != 0U)
 8002e9a:	23a9      	movs	r3, #169	@ 0xa9
 8002e9c:	009b      	lsls	r3, r3, #2
 8002e9e:	58e2      	ldr	r2, [r4, r3]
        pdev->dev_config_status |= USB_CONFIG_REMOTE_WAKEUP;
 8002ea0:	2301      	movs	r3, #1
      if (pdev->dev_remote_wakeup != 0U)
 8002ea2:	2a00      	cmp	r2, #0
 8002ea4:	d000      	beq.n	8002ea8 <USBD_StdDevReq+0x280>
        pdev->dev_config_status |= USB_CONFIG_REMOTE_WAKEUP;
 8002ea6:	3302      	adds	r3, #2
      (void)USBD_CtlSendData(pdev, (uint8_t *)&pdev->dev_config_status, 2U);
 8002ea8:	0021      	movs	r1, r4
 8002eaa:	2202      	movs	r2, #2
 8002eac:	60e3      	str	r3, [r4, #12]
 8002eae:	310c      	adds	r1, #12
 8002eb0:	e719      	b.n	8002ce6 <USBD_StdDevReq+0xbe>
  if (req->wValue == USB_FEATURE_REMOTE_WAKEUP)
 8002eb2:	886b      	ldrh	r3, [r5, #2]
 8002eb4:	2b01      	cmp	r3, #1
 8002eb6:	d103      	bne.n	8002ec0 <USBD_StdDevReq+0x298>
    pdev->dev_remote_wakeup = 1U;
 8002eb8:	22a9      	movs	r2, #169	@ 0xa9
 8002eba:	0092      	lsls	r2, r2, #2
 8002ebc:	50a3      	str	r3, [r4, r2]
    (void)USBD_CtlSendStatus(pdev);
 8002ebe:	e7ad      	b.n	8002e1c <USBD_StdDevReq+0x1f4>
  else if (req->wValue == USB_FEATURE_TEST_MODE)
 8002ec0:	2b02      	cmp	r3, #2
 8002ec2:	d000      	beq.n	8002ec6 <USBD_StdDevReq+0x29e>
 8002ec4:	e6bd      	b.n	8002c42 <USBD_StdDevReq+0x1a>
    pdev->dev_test_mode = (uint8_t)(req->wIndex >> 8);
 8002ec6:	22a8      	movs	r2, #168	@ 0xa8
 8002ec8:	88ab      	ldrh	r3, [r5, #4]
 8002eca:	0092      	lsls	r2, r2, #2
 8002ecc:	0a1b      	lsrs	r3, r3, #8
 8002ece:	54a3      	strb	r3, [r4, r2]
    (void)USBD_CtlSendStatus(pdev);
 8002ed0:	e7a4      	b.n	8002e1c <USBD_StdDevReq+0x1f4>
  switch (pdev->dev_state)
 8002ed2:	23a7      	movs	r3, #167	@ 0xa7
 8002ed4:	009b      	lsls	r3, r3, #2
 8002ed6:	5ce3      	ldrb	r3, [r4, r3]
 8002ed8:	3b01      	subs	r3, #1
 8002eda:	2b02      	cmp	r3, #2
 8002edc:	d900      	bls.n	8002ee0 <USBD_StdDevReq+0x2b8>
 8002ede:	e6b0      	b.n	8002c42 <USBD_StdDevReq+0x1a>
      if (req->wValue == USB_FEATURE_REMOTE_WAKEUP)
 8002ee0:	886b      	ldrh	r3, [r5, #2]
 8002ee2:	2b01      	cmp	r3, #1
 8002ee4:	d000      	beq.n	8002ee8 <USBD_StdDevReq+0x2c0>
 8002ee6:	e6af      	b.n	8002c48 <USBD_StdDevReq+0x20>
        pdev->dev_remote_wakeup = 0U;
 8002ee8:	23a9      	movs	r3, #169	@ 0xa9
 8002eea:	2200      	movs	r2, #0
 8002eec:	009b      	lsls	r3, r3, #2
 8002eee:	50e2      	str	r2, [r4, r3]
 8002ef0:	e794      	b.n	8002e1c <USBD_StdDevReq+0x1f4>
 8002ef2:	46c0      	nop			@ (mov r8, r8)
 8002ef4:	0000029e 	.word	0x0000029e
 8002ef8:	20000130 	.word	0x20000130

08002efc <USBD_StdItfReq>:
{
 8002efc:	2360      	movs	r3, #96	@ 0x60
  switch (req->bmRequest & USB_REQ_TYPE_MASK)
 8002efe:	780a      	ldrb	r2, [r1, #0]
{
 8002f00:	b570      	push	{r4, r5, r6, lr}
 8002f02:	4013      	ands	r3, r2
 8002f04:	0004      	movs	r4, r0
 8002f06:	000e      	movs	r6, r1
  switch (req->bmRequest & USB_REQ_TYPE_MASK)
 8002f08:	0652      	lsls	r2, r2, #25
 8002f0a:	d501      	bpl.n	8002f10 <USBD_StdItfReq+0x14>
 8002f0c:	2b40      	cmp	r3, #64	@ 0x40
 8002f0e:	d125      	bne.n	8002f5c <USBD_StdItfReq+0x60>
      switch (pdev->dev_state)
 8002f10:	23a7      	movs	r3, #167	@ 0xa7
 8002f12:	009b      	lsls	r3, r3, #2
 8002f14:	5ce3      	ldrb	r3, [r4, r3]
 8002f16:	3b01      	subs	r3, #1
 8002f18:	2b02      	cmp	r3, #2
 8002f1a:	d81f      	bhi.n	8002f5c <USBD_StdItfReq+0x60>
          if (LOBYTE(req->wIndex) <= USBD_MAX_NUM_INTERFACES)
 8002f1c:	7931      	ldrb	r1, [r6, #4]
            idx = USBD_CoreFindIF(pdev, LOBYTE(req->wIndex));
 8002f1e:	0020      	movs	r0, r4
          if (LOBYTE(req->wIndex) <= USBD_MAX_NUM_INTERFACES)
 8002f20:	2901      	cmp	r1, #1
 8002f22:	d81c      	bhi.n	8002f5e <USBD_StdItfReq+0x62>
            idx = USBD_CoreFindIF(pdev, LOBYTE(req->wIndex));
 8002f24:	f7ff fe71 	bl	8002c0a <USBD_CoreFindIF>
                ret = USBD_FAIL;
 8002f28:	2503      	movs	r5, #3
            if (((uint8_t)idx != 0xFFU) && (idx < USBD_MAX_SUPPORTED_CLASS))
 8002f2a:	2800      	cmp	r0, #0
 8002f2c:	d10c      	bne.n	8002f48 <USBD_StdItfReq+0x4c>
              if (pdev->pClass[idx]->Setup != NULL)
 8002f2e:	23ae      	movs	r3, #174	@ 0xae
 8002f30:	009b      	lsls	r3, r3, #2
 8002f32:	58e3      	ldr	r3, [r4, r3]
 8002f34:	689b      	ldr	r3, [r3, #8]
 8002f36:	2b00      	cmp	r3, #0
 8002f38:	d006      	beq.n	8002f48 <USBD_StdItfReq+0x4c>
                pdev->classId = idx;
 8002f3a:	22b5      	movs	r2, #181	@ 0xb5
 8002f3c:	0092      	lsls	r2, r2, #2
 8002f3e:	50a0      	str	r0, [r4, r2]
                ret = (USBD_StatusTypeDef)(pdev->pClass[idx]->Setup(pdev, req));
 8002f40:	0031      	movs	r1, r6
 8002f42:	0020      	movs	r0, r4
 8002f44:	4798      	blx	r3
 8002f46:	0005      	movs	r5, r0
            if ((req->wLength == 0U) && (ret == USBD_OK))
 8002f48:	88f3      	ldrh	r3, [r6, #6]
 8002f4a:	2b00      	cmp	r3, #0
 8002f4c:	d104      	bne.n	8002f58 <USBD_StdItfReq+0x5c>
 8002f4e:	2d00      	cmp	r5, #0
 8002f50:	d102      	bne.n	8002f58 <USBD_StdItfReq+0x5c>
              (void)USBD_CtlSendStatus(pdev);
 8002f52:	0020      	movs	r0, r4
 8002f54:	f000 f90f 	bl	8003176 <USBD_CtlSendStatus>
}
 8002f58:	0028      	movs	r0, r5
 8002f5a:	bd70      	pop	{r4, r5, r6, pc}
          USBD_CtlError(pdev, req);
 8002f5c:	0020      	movs	r0, r4
            USBD_CtlError(pdev, req);
 8002f5e:	f7ff fe58 	bl	8002c12 <USBD_CtlError.constprop.0>
  USBD_StatusTypeDef ret = USBD_OK;
 8002f62:	2500      	movs	r5, #0
 8002f64:	e7f8      	b.n	8002f58 <USBD_StdItfReq+0x5c>

08002f66 <USBD_StdEPReq>:
{
 8002f66:	b570      	push	{r4, r5, r6, lr}
 8002f68:	780b      	ldrb	r3, [r1, #0]
  ep_addr = LOBYTE(req->wIndex);
 8002f6a:	888a      	ldrh	r2, [r1, #4]
{
 8002f6c:	000e      	movs	r6, r1
 8002f6e:	2160      	movs	r1, #96	@ 0x60
 8002f70:	400b      	ands	r3, r1
 8002f72:	0004      	movs	r4, r0
  switch (req->bmRequest & USB_REQ_TYPE_MASK)
 8002f74:	0018      	movs	r0, r3
 8002f76:	1849      	adds	r1, r1, r1
 8002f78:	3820      	subs	r0, #32
  ep_addr = LOBYTE(req->wIndex);
 8002f7a:	b2d5      	uxtb	r5, r2
  switch (req->bmRequest & USB_REQ_TYPE_MASK)
 8002f7c:	4208      	tst	r0, r1
 8002f7e:	d05e      	beq.n	800303e <USBD_StdEPReq+0xd8>
 8002f80:	2b00      	cmp	r3, #0
 8002f82:	d003      	beq.n	8002f8c <USBD_StdEPReq+0x26>
              USBD_CtlError(pdev, req);
 8002f84:	0020      	movs	r0, r4
 8002f86:	f7ff fe44 	bl	8002c12 <USBD_CtlError.constprop.0>
              break;
 8002f8a:	e042      	b.n	8003012 <USBD_StdEPReq+0xac>
      switch (req->bRequest)
 8002f8c:	7873      	ldrb	r3, [r6, #1]
 8002f8e:	2b01      	cmp	r3, #1
 8002f90:	d041      	beq.n	8003016 <USBD_StdEPReq+0xb0>
 8002f92:	2b03      	cmp	r3, #3
 8002f94:	d026      	beq.n	8002fe4 <USBD_StdEPReq+0x7e>
 8002f96:	2b00      	cmp	r3, #0
 8002f98:	d1f4      	bne.n	8002f84 <USBD_StdEPReq+0x1e>
          switch (pdev->dev_state)
 8002f9a:	23a7      	movs	r3, #167	@ 0xa7
 8002f9c:	009b      	lsls	r3, r3, #2
 8002f9e:	5ce3      	ldrb	r3, [r4, r3]
 8002fa0:	b2d9      	uxtb	r1, r3
 8002fa2:	2b02      	cmp	r3, #2
 8002fa4:	d100      	bne.n	8002fa8 <USBD_StdEPReq+0x42>
 8002fa6:	e068      	b.n	800307a <USBD_StdEPReq+0x114>
 8002fa8:	2903      	cmp	r1, #3
 8002faa:	d1eb      	bne.n	8002f84 <USBD_StdEPReq+0x1e>
                if (pdev->ep_in[ep_addr & 0xFU].is_used == 0U)
 8002fac:	230f      	movs	r3, #15
 8002fae:	2614      	movs	r6, #20
 8002fb0:	402b      	ands	r3, r5
 8002fb2:	4373      	muls	r3, r6
 8002fb4:	18e3      	adds	r3, r4, r3
              if ((ep_addr & 0x80U) == 0x80U)
 8002fb6:	0612      	lsls	r2, r2, #24
 8002fb8:	d400      	bmi.n	8002fbc <USBD_StdEPReq+0x56>
 8002fba:	e06f      	b.n	800309c <USBD_StdEPReq+0x136>
                if (pdev->ep_in[ep_addr & 0xFU].is_used == 0U)
 8002fbc:	8c9b      	ldrh	r3, [r3, #36]	@ 0x24
 8002fbe:	2b00      	cmp	r3, #0
 8002fc0:	d0e0      	beq.n	8002f84 <USBD_StdEPReq+0x1e>
              pep = ((ep_addr & 0x80U) == 0x80U) ? &pdev->ep_in[ep_addr & 0x7FU] : \
 8002fc2:	237f      	movs	r3, #127	@ 0x7f
 8002fc4:	402b      	ands	r3, r5
 8002fc6:	3301      	adds	r3, #1
 8002fc8:	435e      	muls	r6, r3
 8002fca:	19a6      	adds	r6, r4, r6
              if ((ep_addr == 0x00U) || (ep_addr == 0x80U))
 8002fcc:	2d80      	cmp	r5, #128	@ 0x80
 8002fce:	d100      	bne.n	8002fd2 <USBD_StdEPReq+0x6c>
 8002fd0:	e071      	b.n	80030b6 <USBD_StdEPReq+0x150>
              else if (USBD_LL_IsStallEP(pdev, ep_addr) != 0U)
 8002fd2:	0029      	movs	r1, r5
 8002fd4:	0020      	movs	r0, r4
 8002fd6:	f000 fa95 	bl	8003504 <USBD_LL_IsStallEP>
 8002fda:	2800      	cmp	r0, #0
 8002fdc:	d100      	bne.n	8002fe0 <USBD_StdEPReq+0x7a>
 8002fde:	e06f      	b.n	80030c0 <USBD_StdEPReq+0x15a>
                pep->status = 0x0001U;
 8002fe0:	2301      	movs	r3, #1
 8002fe2:	e069      	b.n	80030b8 <USBD_StdEPReq+0x152>
          switch (pdev->dev_state)
 8002fe4:	23a7      	movs	r3, #167	@ 0xa7
 8002fe6:	009b      	lsls	r3, r3, #2
 8002fe8:	5ce3      	ldrb	r3, [r4, r3]
 8002fea:	b2da      	uxtb	r2, r3
 8002fec:	2b02      	cmp	r3, #2
 8002fee:	d038      	beq.n	8003062 <USBD_StdEPReq+0xfc>
 8002ff0:	2a03      	cmp	r2, #3
 8002ff2:	d1c7      	bne.n	8002f84 <USBD_StdEPReq+0x1e>
              if (req->wValue == USB_FEATURE_EP_HALT)
 8002ff4:	8873      	ldrh	r3, [r6, #2]
 8002ff6:	2b00      	cmp	r3, #0
 8002ff8:	d108      	bne.n	800300c <USBD_StdEPReq+0xa6>
                if ((ep_addr != 0x00U) && (ep_addr != 0x80U) && (req->wLength == 0x00U))
 8002ffa:	066b      	lsls	r3, r5, #25
 8002ffc:	d006      	beq.n	800300c <USBD_StdEPReq+0xa6>
 8002ffe:	88f3      	ldrh	r3, [r6, #6]
 8003000:	2b00      	cmp	r3, #0
 8003002:	d103      	bne.n	800300c <USBD_StdEPReq+0xa6>
                  (void)USBD_LL_StallEP(pdev, ep_addr);
 8003004:	0029      	movs	r1, r5
 8003006:	0020      	movs	r0, r4
 8003008:	f000 fa6a 	bl	80034e0 <USBD_LL_StallEP>
              (void)USBD_CtlSendStatus(pdev);
 800300c:	0020      	movs	r0, r4
 800300e:	f000 f8b2 	bl	8003176 <USBD_CtlSendStatus>
  USBD_StatusTypeDef ret = USBD_OK;
 8003012:	2000      	movs	r0, #0
}
 8003014:	bd70      	pop	{r4, r5, r6, pc}
          switch (pdev->dev_state)
 8003016:	23a7      	movs	r3, #167	@ 0xa7
 8003018:	009b      	lsls	r3, r3, #2
 800301a:	5ce3      	ldrb	r3, [r4, r3]
 800301c:	b2da      	uxtb	r2, r3
 800301e:	2b02      	cmp	r3, #2
 8003020:	d01f      	beq.n	8003062 <USBD_StdEPReq+0xfc>
 8003022:	2a03      	cmp	r2, #3
 8003024:	d1ae      	bne.n	8002f84 <USBD_StdEPReq+0x1e>
              if (req->wValue == USB_FEATURE_EP_HALT)
 8003026:	8873      	ldrh	r3, [r6, #2]
 8003028:	2b00      	cmp	r3, #0
 800302a:	d1f2      	bne.n	8003012 <USBD_StdEPReq+0xac>
                if ((ep_addr & 0x7FU) != 0x00U)
 800302c:	066b      	lsls	r3, r5, #25
 800302e:	d003      	beq.n	8003038 <USBD_StdEPReq+0xd2>
                  (void)USBD_LL_ClearStallEP(pdev, ep_addr);
 8003030:	0029      	movs	r1, r5
 8003032:	0020      	movs	r0, r4
 8003034:	f000 fa5d 	bl	80034f2 <USBD_LL_ClearStallEP>
                (void)USBD_CtlSendStatus(pdev);
 8003038:	0020      	movs	r0, r4
 800303a:	f000 f89c 	bl	8003176 <USBD_CtlSendStatus>
                idx = USBD_CoreFindEP(pdev, ep_addr);
 800303e:	0029      	movs	r1, r5
 8003040:	0020      	movs	r0, r4
 8003042:	f7ff fde4 	bl	8002c0e <USBD_CoreFindEP>
                if (((uint8_t)idx != 0xFFU) && (idx < USBD_MAX_SUPPORTED_CLASS))
 8003046:	2800      	cmp	r0, #0
 8003048:	d1e3      	bne.n	8003012 <USBD_StdEPReq+0xac>
                  pdev->classId = idx;
 800304a:	23b5      	movs	r3, #181	@ 0xb5
 800304c:	009b      	lsls	r3, r3, #2
 800304e:	50e0      	str	r0, [r4, r3]
                  if (pdev->pClass[idx]->Setup != NULL)
 8003050:	3b1c      	subs	r3, #28
 8003052:	58e3      	ldr	r3, [r4, r3]
 8003054:	689b      	ldr	r3, [r3, #8]
 8003056:	2b00      	cmp	r3, #0
 8003058:	d0db      	beq.n	8003012 <USBD_StdEPReq+0xac>
                    ret = (USBD_StatusTypeDef)(pdev->pClass[idx]->Setup(pdev, req));
 800305a:	0031      	movs	r1, r6
 800305c:	0020      	movs	r0, r4
 800305e:	4798      	blx	r3
 8003060:	e7d8      	b.n	8003014 <USBD_StdEPReq+0xae>
              if ((ep_addr != 0x00U) && (ep_addr != 0x80U))
 8003062:	066b      	lsls	r3, r5, #25
 8003064:	d100      	bne.n	8003068 <USBD_StdEPReq+0x102>
 8003066:	e78d      	b.n	8002f84 <USBD_StdEPReq+0x1e>
                (void)USBD_LL_StallEP(pdev, ep_addr);
 8003068:	0029      	movs	r1, r5
 800306a:	0020      	movs	r0, r4
 800306c:	f000 fa38 	bl	80034e0 <USBD_LL_StallEP>
                (void)USBD_LL_StallEP(pdev, 0x80U);
 8003070:	2180      	movs	r1, #128	@ 0x80
 8003072:	0020      	movs	r0, r4
 8003074:	f000 fa34 	bl	80034e0 <USBD_LL_StallEP>
 8003078:	e7cb      	b.n	8003012 <USBD_StdEPReq+0xac>
              if ((ep_addr != 0x00U) && (ep_addr != 0x80U))
 800307a:	066d      	lsls	r5, r5, #25
 800307c:	d000      	beq.n	8003080 <USBD_StdEPReq+0x11a>
 800307e:	e781      	b.n	8002f84 <USBD_StdEPReq+0x1e>
              pep = ((ep_addr & 0x80U) == 0x80U) ? &pdev->ep_in[ep_addr & 0x7FU] : \
 8003080:	0021      	movs	r1, r4
 8003082:	3155      	adds	r1, #85	@ 0x55
 8003084:	31ff      	adds	r1, #255	@ 0xff
 8003086:	0612      	lsls	r2, r2, #24
 8003088:	d501      	bpl.n	800308e <USBD_StdEPReq+0x128>
 800308a:	3941      	subs	r1, #65	@ 0x41
 800308c:	39ff      	subs	r1, #255	@ 0xff
              pep->status = 0x0000U;
 800308e:	2300      	movs	r3, #0
              (void)USBD_CtlSendData(pdev, (uint8_t *)&pep->status, 2U);
 8003090:	2202      	movs	r2, #2
              pep->status = 0x0000U;
 8003092:	600b      	str	r3, [r1, #0]
              (void)USBD_CtlSendData(pdev, (uint8_t *)&pep->status, 2U);
 8003094:	0020      	movs	r0, r4
 8003096:	f000 f850 	bl	800313a <USBD_CtlSendData>
              break;
 800309a:	e7ba      	b.n	8003012 <USBD_StdEPReq+0xac>
                if (pdev->ep_out[ep_addr & 0xFU].is_used == 0U)
 800309c:	3365      	adds	r3, #101	@ 0x65
 800309e:	33ff      	adds	r3, #255	@ 0xff
 80030a0:	881b      	ldrh	r3, [r3, #0]
 80030a2:	2b00      	cmp	r3, #0
 80030a4:	d100      	bne.n	80030a8 <USBD_StdEPReq+0x142>
 80030a6:	e76d      	b.n	8002f84 <USBD_StdEPReq+0x1e>
              pep = ((ep_addr & 0x80U) == 0x80U) ? &pdev->ep_in[ep_addr & 0x7FU] : \
 80030a8:	436e      	muls	r6, r5
 80030aa:	3655      	adds	r6, #85	@ 0x55
 80030ac:	36ff      	adds	r6, #255	@ 0xff
 80030ae:	19a6      	adds	r6, r4, r6
              if ((ep_addr == 0x00U) || (ep_addr == 0x80U))
 80030b0:	2d00      	cmp	r5, #0
 80030b2:	d000      	beq.n	80030b6 <USBD_StdEPReq+0x150>
 80030b4:	e78d      	b.n	8002fd2 <USBD_StdEPReq+0x6c>
                pep->status = 0x0000U;
 80030b6:	2300      	movs	r3, #0
                pep->status = 0x0001U;
 80030b8:	6033      	str	r3, [r6, #0]
              (void)USBD_CtlSendData(pdev, (uint8_t *)&pep->status, 2U);
 80030ba:	2202      	movs	r2, #2
 80030bc:	0031      	movs	r1, r6
 80030be:	e7e9      	b.n	8003094 <USBD_StdEPReq+0x12e>
                pep->status = 0x0000U;
 80030c0:	6030      	str	r0, [r6, #0]
 80030c2:	e7fa      	b.n	80030ba <USBD_StdEPReq+0x154>

080030c4 <USBD_ParseSetupRequest>:
  req->bmRequest = *(uint8_t *)(pbuff);
 80030c4:	780b      	ldrb	r3, [r1, #0]
 80030c6:	7003      	strb	r3, [r0, #0]
  req->bRequest = *(uint8_t *)(pbuff);
 80030c8:	784b      	ldrb	r3, [r1, #1]
 80030ca:	7043      	strb	r3, [r0, #1]
  req->wValue = SWAPBYTE(pbuff);
 80030cc:	78cb      	ldrb	r3, [r1, #3]
 80030ce:	788a      	ldrb	r2, [r1, #2]
 80030d0:	021b      	lsls	r3, r3, #8
 80030d2:	4313      	orrs	r3, r2
 80030d4:	8043      	strh	r3, [r0, #2]
  req->wIndex = SWAPBYTE(pbuff);
 80030d6:	794b      	ldrb	r3, [r1, #5]
 80030d8:	790a      	ldrb	r2, [r1, #4]
 80030da:	021b      	lsls	r3, r3, #8
 80030dc:	4313      	orrs	r3, r2
 80030de:	8083      	strh	r3, [r0, #4]
  req->wLength = SWAPBYTE(pbuff);
 80030e0:	79cb      	ldrb	r3, [r1, #7]
 80030e2:	798a      	ldrb	r2, [r1, #6]
 80030e4:	021b      	lsls	r3, r3, #8
 80030e6:	4313      	orrs	r3, r2
 80030e8:	80c3      	strh	r3, [r0, #6]
}
 80030ea:	4770      	bx	lr

080030ec <USBD_CtlError>:
{
 80030ec:	b510      	push	{r4, lr}
 80030ee:	0004      	movs	r4, r0
  (void)USBD_LL_StallEP(pdev, 0x80U);
 80030f0:	2180      	movs	r1, #128	@ 0x80
 80030f2:	f000 f9f5 	bl	80034e0 <USBD_LL_StallEP>
  (void)USBD_LL_StallEP(pdev, 0U);
 80030f6:	2100      	movs	r1, #0
 80030f8:	0020      	movs	r0, r4
 80030fa:	f000 f9f1 	bl	80034e0 <USBD_LL_StallEP>
}
 80030fe:	bd10      	pop	{r4, pc}

08003100 <USBD_GetString>:
  * @param  unicode : Formatted string buffer (unicode)
  * @param  len : descriptor length
  * @retval None
  */
void USBD_GetString(uint8_t *desc, uint8_t *unicode, uint16_t *len)
{
 8003100:	b570      	push	{r4, r5, r6, lr}
 8003102:	0004      	movs	r4, r0
 8003104:	000d      	movs	r5, r1
 8003106:	0016      	movs	r6, r2
  uint8_t idx = 0U;
  uint8_t *pdesc;

  if (desc == NULL)
 8003108:	2800      	cmp	r0, #0
 800310a:	d00d      	beq.n	8003128 <USBD_GetString+0x28>
static uint8_t USBD_GetLen(uint8_t *buf)
{
  uint8_t  len = 0U;
  uint8_t *pbuff = buf;

  while (*pbuff != (uint8_t)'\0')
 800310c:	f7fc fffa 	bl	8000104 <strlen>
  *len = ((uint16_t)USBD_GetLen(pdesc) * 2U) + 2U;
 8003110:	b2c3      	uxtb	r3, r0
 8003112:	3301      	adds	r3, #1
 8003114:	005b      	lsls	r3, r3, #1
 8003116:	8033      	strh	r3, [r6, #0]
  unicode[idx] = *(uint8_t *)len;
 8003118:	702b      	strb	r3, [r5, #0]
  unicode[idx] = USB_DESC_TYPE_STRING;
 800311a:	2303      	movs	r3, #3
    unicode[idx] = 0U;
 800311c:	2100      	movs	r1, #0
  unicode[idx] = USB_DESC_TYPE_STRING;
 800311e:	706b      	strb	r3, [r5, #1]
  idx++;
 8003120:	3b01      	subs	r3, #1
  while (*pdesc != (uint8_t)'\0')
 8003122:	7822      	ldrb	r2, [r4, #0]
 8003124:	2a00      	cmp	r2, #0
 8003126:	d100      	bne.n	800312a <USBD_GetString+0x2a>
}
 8003128:	bd70      	pop	{r4, r5, r6, pc}
    unicode[idx] = *pdesc;
 800312a:	54ea      	strb	r2, [r5, r3]
    idx++;
 800312c:	1c5a      	adds	r2, r3, #1
    unicode[idx] = 0U;
 800312e:	b2d2      	uxtb	r2, r2
    idx++;
 8003130:	3302      	adds	r3, #2
    pdesc++;
 8003132:	3401      	adds	r4, #1
    unicode[idx] = 0U;
 8003134:	54a9      	strb	r1, [r5, r2]
    idx++;
 8003136:	b2db      	uxtb	r3, r3
 8003138:	e7f3      	b.n	8003122 <USBD_GetString+0x22>

0800313a <USBD_CtlSendData>:
  * @param  len: length of data to be sent
  * @retval status
  */
USBD_StatusTypeDef USBD_CtlSendData(USBD_HandleTypeDef *pdev,
                                    uint8_t *pbuf, uint32_t len)
{
 800313a:	0013      	movs	r3, r2
  /* Set EP0 State */
  pdev->ep0_state = USBD_EP0_DATA_IN;
 800313c:	22a5      	movs	r2, #165	@ 0xa5
{
 800313e:	b510      	push	{r4, lr}
  pdev->ep0_state = USBD_EP0_DATA_IN;
 8003140:	2402      	movs	r4, #2
 8003142:	0092      	lsls	r2, r2, #2
 8003144:	5084      	str	r4, [r0, r2]
#else
  pdev->ep_in[0].rem_length = len;
#endif /* USBD_AVOID_PACKET_SPLIT_MPS */

  /* Start the transfer */
  (void)USBD_LL_Transmit(pdev, 0x00U, pbuf, len);
 8003146:	000a      	movs	r2, r1
  pdev->ep_in[0].total_length = len;
 8003148:	6183      	str	r3, [r0, #24]
  (void)USBD_LL_Transmit(pdev, 0x00U, pbuf, len);
 800314a:	2100      	movs	r1, #0
  pdev->ep_in[0].rem_length = len;
 800314c:	61c3      	str	r3, [r0, #28]
  (void)USBD_LL_Transmit(pdev, 0x00U, pbuf, len);
 800314e:	f000 f9f5 	bl	800353c <USBD_LL_Transmit>

  return USBD_OK;
}
 8003152:	2000      	movs	r0, #0
 8003154:	bd10      	pop	{r4, pc}

08003156 <USBD_CtlContinueSendData>:
  * @param  len: length of data to be sent
  * @retval status
  */
USBD_StatusTypeDef USBD_CtlContinueSendData(USBD_HandleTypeDef *pdev,
                                            uint8_t *pbuf, uint32_t len)
{
 8003156:	b510      	push	{r4, lr}
 8003158:	0013      	movs	r3, r2
  /* Start the next transfer */
  (void)USBD_LL_Transmit(pdev, 0x00U, pbuf, len);
 800315a:	000a      	movs	r2, r1
 800315c:	2100      	movs	r1, #0
 800315e:	f000 f9ed 	bl	800353c <USBD_LL_Transmit>

  return USBD_OK;
}
 8003162:	2000      	movs	r0, #0
 8003164:	bd10      	pop	{r4, pc}

08003166 <USBD_CtlContinueRx>:
  * @param  len: length of data to be received
  * @retval status
  */
USBD_StatusTypeDef USBD_CtlContinueRx(USBD_HandleTypeDef *pdev,
                                      uint8_t *pbuf, uint32_t len)
{
 8003166:	b510      	push	{r4, lr}
 8003168:	0013      	movs	r3, r2
  (void)USBD_LL_PrepareReceive(pdev, 0U, pbuf, len);
 800316a:	000a      	movs	r2, r1
 800316c:	2100      	movs	r1, #0
 800316e:	f000 f9ee 	bl	800354e <USBD_LL_PrepareReceive>

  return USBD_OK;
}
 8003172:	2000      	movs	r0, #0
 8003174:	bd10      	pop	{r4, pc}

08003176 <USBD_CtlSendStatus>:
  * @retval status
  */
USBD_StatusTypeDef USBD_CtlSendStatus(USBD_HandleTypeDef *pdev)
{
  /* Set EP0 State */
  pdev->ep0_state = USBD_EP0_STATUS_IN;
 8003176:	23a5      	movs	r3, #165	@ 0xa5
 8003178:	2204      	movs	r2, #4
 800317a:	009b      	lsls	r3, r3, #2
{
 800317c:	b510      	push	{r4, lr}
  pdev->ep0_state = USBD_EP0_STATUS_IN;
 800317e:	50c2      	str	r2, [r0, r3]

  /* Start the transfer */
  (void)USBD_LL_Transmit(pdev, 0x00U, NULL, 0U);
 8003180:	2300      	movs	r3, #0
 8003182:	001a      	movs	r2, r3
 8003184:	0019      	movs	r1, r3
 8003186:	f000 f9d9 	bl	800353c <USBD_LL_Transmit>

  return USBD_OK;
}
 800318a:	2000      	movs	r0, #0
 800318c:	bd10      	pop	{r4, pc}

0800318e <USBD_CtlReceiveStatus>:
  * @retval status
  */
USBD_StatusTypeDef USBD_CtlReceiveStatus(USBD_HandleTypeDef *pdev)
{
  /* Set EP0 State */
  pdev->ep0_state = USBD_EP0_STATUS_OUT;
 800318e:	23a5      	movs	r3, #165	@ 0xa5
 8003190:	2205      	movs	r2, #5
 8003192:	009b      	lsls	r3, r3, #2
{
 8003194:	b510      	push	{r4, lr}
  pdev->ep0_state = USBD_EP0_STATUS_OUT;
 8003196:	50c2      	str	r2, [r0, r3]

  /* Start the transfer */
  (void)USBD_LL_PrepareReceive(pdev, 0U, NULL, 0U);
 8003198:	2300      	movs	r3, #0
 800319a:	001a      	movs	r2, r3
 800319c:	0019      	movs	r1, r3
 800319e:	f000 f9d6 	bl	800354e <USBD_LL_PrepareReceive>

  return USBD_OK;
}
 80031a2:	2000      	movs	r0, #0
 80031a4:	bd10      	pop	{r4, pc}
	...

080031a8 <MX_USB_Device_Init>:
/**
  * Init USB device Library, add supported class and start the library
  * @retval None
  */
void MX_USB_Device_Init(void)
{
 80031a8:	b510      	push	{r4, lr}
  /* USER CODE BEGIN USB_Device_Init_PreTreatment */

  /* USER CODE END USB_Device_Init_PreTreatment */

  /* Init Device Library, add supported class and start the library. */
  if (USBD_Init(&hUsbDeviceFS, &HID_Desc, DEVICE_FS) != USBD_OK) {
 80031aa:	4c0d      	ldr	r4, [pc, #52]	@ (80031e0 <MX_USB_Device_Init+0x38>)
 80031ac:	2200      	movs	r2, #0
 80031ae:	0020      	movs	r0, r4
 80031b0:	490c      	ldr	r1, [pc, #48]	@ (80031e4 <MX_USB_Device_Init+0x3c>)
 80031b2:	f7ff fba5 	bl	8002900 <USBD_Init>
 80031b6:	2800      	cmp	r0, #0
 80031b8:	d001      	beq.n	80031be <MX_USB_Device_Init+0x16>
    Error_Handler();
 80031ba:	f7fd fa4b 	bl	8000654 <Error_Handler>
  }
  if (USBD_RegisterClass(&hUsbDeviceFS, &USBD_HID) != USBD_OK) {
 80031be:	0020      	movs	r0, r4
 80031c0:	4909      	ldr	r1, [pc, #36]	@ (80031e8 <MX_USB_Device_Init+0x40>)
 80031c2:	f7ff fbb8 	bl	8002936 <USBD_RegisterClass>
 80031c6:	2800      	cmp	r0, #0
 80031c8:	d001      	beq.n	80031ce <MX_USB_Device_Init+0x26>
    Error_Handler();
 80031ca:	f7fd fa43 	bl	8000654 <Error_Handler>
  }
  if (USBD_Start(&hUsbDeviceFS) != USBD_OK) {
 80031ce:	0020      	movs	r0, r4
 80031d0:	f7ff fbcc 	bl	800296c <USBD_Start>
 80031d4:	2800      	cmp	r0, #0
 80031d6:	d001      	beq.n	80031dc <MX_USB_Device_Init+0x34>
    Error_Handler();
 80031d8:	f7fd fa3c 	bl	8000654 <Error_Handler>
  }
  /* USER CODE BEGIN USB_Device_Init_PostTreatment */

  /* USER CODE END USB_Device_Init_PostTreatment */
}
 80031dc:	bd10      	pop	{r4, pc}
 80031de:	46c0      	nop			@ (mov r8, r8)
 80031e0:	20000134 	.word	0x20000134
 80031e4:	200000e4 	.word	0x200000e4
 80031e8:	20000070 	.word	0x20000070

080031ec <USBD_HID_DeviceDescriptor>:
  * @retval Pointer to descriptor buffer
  */
uint8_t * USBD_HID_DeviceDescriptor(USBD_SpeedTypeDef speed, uint16_t *length)
{
  UNUSED(speed);
  *length = sizeof(USBD_HID_DeviceDesc);
 80031ec:	2312      	movs	r3, #18
  return USBD_HID_DeviceDesc;
 80031ee:	4801      	ldr	r0, [pc, #4]	@ (80031f4 <USBD_HID_DeviceDescriptor+0x8>)
  *length = sizeof(USBD_HID_DeviceDesc);
 80031f0:	800b      	strh	r3, [r1, #0]
}
 80031f2:	4770      	bx	lr
 80031f4:	200000d0 	.word	0x200000d0

080031f8 <USBD_HID_LangIDStrDescriptor>:
  * @retval Pointer to descriptor buffer
  */
uint8_t * USBD_HID_LangIDStrDescriptor(USBD_SpeedTypeDef speed, uint16_t *length)
{
  UNUSED(speed);
  *length = sizeof(USBD_LangIDDesc);
 80031f8:	2304      	movs	r3, #4
  return USBD_LangIDDesc;
 80031fa:	4801      	ldr	r0, [pc, #4]	@ (8003200 <USBD_HID_LangIDStrDescriptor+0x8>)
  *length = sizeof(USBD_LangIDDesc);
 80031fc:	800b      	strh	r3, [r1, #0]
}
 80031fe:	4770      	bx	lr
 8003200:	200000cc 	.word	0x200000cc

08003204 <IntToUnicode>:
  * @param  pbuf: pointer to the buffer
  * @param  len: buffer length
  * @retval None
  */
static void IntToUnicode(uint32_t value, uint8_t * pbuf, uint8_t len)
{
 8003204:	b570      	push	{r4, r5, r6, lr}
      pbuf[2 * idx] = (value >> 28) + 'A' - 10;
    }

    value = value << 4;

    pbuf[2 * idx + 1] = 0;
 8003206:	2600      	movs	r6, #0
 8003208:	0052      	lsls	r2, r2, #1
 800320a:	188a      	adds	r2, r1, r2
    if (((value >> 28)) < 0xA)
 800320c:	0f05      	lsrs	r5, r0, #28
      pbuf[2 * idx] = (value >> 28) + '0';
 800320e:	b2ec      	uxtb	r4, r5
      pbuf[2 * idx] = (value >> 28) + 'A' - 10;
 8003210:	0023      	movs	r3, r4
 8003212:	3337      	adds	r3, #55	@ 0x37
    if (((value >> 28)) < 0xA)
 8003214:	2d09      	cmp	r5, #9
 8003216:	d800      	bhi.n	800321a <IntToUnicode+0x16>
      pbuf[2 * idx] = (value >> 28) + '0';
 8003218:	3b07      	subs	r3, #7
 800321a:	700b      	strb	r3, [r1, #0]
    pbuf[2 * idx + 1] = 0;
 800321c:	704e      	strb	r6, [r1, #1]
  for (idx = 0; idx < len; idx++)
 800321e:	3102      	adds	r1, #2
    value = value << 4;
 8003220:	0100      	lsls	r0, r0, #4
  for (idx = 0; idx < len; idx++)
 8003222:	428a      	cmp	r2, r1
 8003224:	d1f2      	bne.n	800320c <IntToUnicode+0x8>
  }
}
 8003226:	bd70      	pop	{r4, r5, r6, pc}

08003228 <USBD_HID_SerialStrDescriptor>:
  *length = USB_SIZ_STRING_SERIAL;
 8003228:	231a      	movs	r3, #26
{
 800322a:	b510      	push	{r4, lr}
  *length = USB_SIZ_STRING_SERIAL;
 800322c:	800b      	strh	r3, [r1, #0]
  deviceserial0 = *(uint32_t *) DEVICE_ID1;
 800322e:	4b0a      	ldr	r3, [pc, #40]	@ (8003258 <USBD_HID_SerialStrDescriptor+0x30>)
 8003230:	6818      	ldr	r0, [r3, #0]
  deviceserial2 = *(uint32_t *) DEVICE_ID3;
 8003232:	4b0a      	ldr	r3, [pc, #40]	@ (800325c <USBD_HID_SerialStrDescriptor+0x34>)
  deviceserial0 += deviceserial2;
 8003234:	681b      	ldr	r3, [r3, #0]
 8003236:	18c0      	adds	r0, r0, r3
  if (deviceserial0 != 0)
 8003238:	2800      	cmp	r0, #0
 800323a:	d00a      	beq.n	8003252 <USBD_HID_SerialStrDescriptor+0x2a>
  deviceserial1 = *(uint32_t *) DEVICE_ID2;
 800323c:	4b08      	ldr	r3, [pc, #32]	@ (8003260 <USBD_HID_SerialStrDescriptor+0x38>)
    IntToUnicode(deviceserial0, &USBD_StringSerial[2], 8);
 800323e:	2208      	movs	r2, #8
  deviceserial1 = *(uint32_t *) DEVICE_ID2;
 8003240:	681c      	ldr	r4, [r3, #0]
    IntToUnicode(deviceserial0, &USBD_StringSerial[2], 8);
 8003242:	4908      	ldr	r1, [pc, #32]	@ (8003264 <USBD_HID_SerialStrDescriptor+0x3c>)
 8003244:	f7ff ffde 	bl	8003204 <IntToUnicode>
    IntToUnicode(deviceserial1, &USBD_StringSerial[18], 4);
 8003248:	2204      	movs	r2, #4
 800324a:	0020      	movs	r0, r4
 800324c:	4906      	ldr	r1, [pc, #24]	@ (8003268 <USBD_HID_SerialStrDescriptor+0x40>)
 800324e:	f7ff ffd9 	bl	8003204 <IntToUnicode>
  return (uint8_t *) USBD_StringSerial;
 8003252:	4806      	ldr	r0, [pc, #24]	@ (800326c <USBD_HID_SerialStrDescriptor+0x44>)
}
 8003254:	bd10      	pop	{r4, pc}
 8003256:	46c0      	nop			@ (mov r8, r8)
 8003258:	1fff7590 	.word	0x1fff7590
 800325c:	1fff7598 	.word	0x1fff7598
 8003260:	1fff7594 	.word	0x1fff7594
 8003264:	200000b2 	.word	0x200000b2
 8003268:	200000c2 	.word	0x200000c2
 800326c:	200000b0 	.word	0x200000b0

08003270 <USBD_HID_ManufacturerStrDescriptor>:
{
 8003270:	b510      	push	{r4, lr}
  USBD_GetString((uint8_t *)USBD_MANUFACTURER_STRING, USBD_StrDesc, length);
 8003272:	4c04      	ldr	r4, [pc, #16]	@ (8003284 <USBD_HID_ManufacturerStrDescriptor+0x14>)
{
 8003274:	000a      	movs	r2, r1
  USBD_GetString((uint8_t *)USBD_MANUFACTURER_STRING, USBD_StrDesc, length);
 8003276:	0021      	movs	r1, r4
 8003278:	4803      	ldr	r0, [pc, #12]	@ (8003288 <USBD_HID_ManufacturerStrDescriptor+0x18>)
 800327a:	f7ff ff41 	bl	8003100 <USBD_GetString>
}
 800327e:	0020      	movs	r0, r4
 8003280:	bd10      	pop	{r4, pc}
 8003282:	46c0      	nop			@ (mov r8, r8)
 8003284:	20000410 	.word	0x20000410
 8003288:	0800366c 	.word	0x0800366c

0800328c <USBD_HID_ProductStrDescriptor>:
{
 800328c:	b510      	push	{r4, lr}
    USBD_GetString((uint8_t *)USBD_PRODUCT_STRING, USBD_StrDesc, length);
 800328e:	4c04      	ldr	r4, [pc, #16]	@ (80032a0 <USBD_HID_ProductStrDescriptor+0x14>)
{
 8003290:	000a      	movs	r2, r1
    USBD_GetString((uint8_t *)USBD_PRODUCT_STRING, USBD_StrDesc, length);
 8003292:	0021      	movs	r1, r4
 8003294:	4803      	ldr	r0, [pc, #12]	@ (80032a4 <USBD_HID_ProductStrDescriptor+0x18>)
 8003296:	f7ff ff33 	bl	8003100 <USBD_GetString>
}
 800329a:	0020      	movs	r0, r4
 800329c:	bd10      	pop	{r4, pc}
 800329e:	46c0      	nop			@ (mov r8, r8)
 80032a0:	20000410 	.word	0x20000410
 80032a4:	08003678 	.word	0x08003678

080032a8 <USBD_HID_ConfigStrDescriptor>:
{
 80032a8:	b510      	push	{r4, lr}
    USBD_GetString((uint8_t *)USBD_CONFIGURATION_STRING, USBD_StrDesc, length);
 80032aa:	4c04      	ldr	r4, [pc, #16]	@ (80032bc <USBD_HID_ConfigStrDescriptor+0x14>)
{
 80032ac:	000a      	movs	r2, r1
    USBD_GetString((uint8_t *)USBD_CONFIGURATION_STRING, USBD_StrDesc, length);
 80032ae:	0021      	movs	r1, r4
 80032b0:	4803      	ldr	r0, [pc, #12]	@ (80032c0 <USBD_HID_ConfigStrDescriptor+0x18>)
 80032b2:	f7ff ff25 	bl	8003100 <USBD_GetString>
}
 80032b6:	0020      	movs	r0, r4
 80032b8:	bd10      	pop	{r4, pc}
 80032ba:	46c0      	nop			@ (mov r8, r8)
 80032bc:	20000410 	.word	0x20000410
 80032c0:	08003698 	.word	0x08003698

080032c4 <USBD_HID_InterfaceStrDescriptor>:
{
 80032c4:	b510      	push	{r4, lr}
    USBD_GetString((uint8_t *)USBD_INTERFACE_STRING, USBD_StrDesc, length);
 80032c6:	4c04      	ldr	r4, [pc, #16]	@ (80032d8 <USBD_HID_InterfaceStrDescriptor+0x14>)
{
 80032c8:	000a      	movs	r2, r1
    USBD_GetString((uint8_t *)USBD_INTERFACE_STRING, USBD_StrDesc, length);
 80032ca:	0021      	movs	r1, r4
 80032cc:	4803      	ldr	r0, [pc, #12]	@ (80032dc <USBD_HID_InterfaceStrDescriptor+0x18>)
 80032ce:	f7ff ff17 	bl	8003100 <USBD_GetString>
}
 80032d2:	0020      	movs	r0, r4
 80032d4:	bd10      	pop	{r4, pc}
 80032d6:	46c0      	nop			@ (mov r8, r8)
 80032d8:	20000410 	.word	0x20000410
 80032dc:	080036a3 	.word	0x080036a3

080032e0 <USBD_Get_USB_Status>:
  */
USBD_StatusTypeDef USBD_Get_USB_Status(HAL_StatusTypeDef hal_status)
{
  USBD_StatusTypeDef usb_status = USBD_OK;

  switch (hal_status)
 80032e0:	2800      	cmp	r0, #0
 80032e2:	d002      	beq.n	80032ea <USBD_Get_USB_Status+0xa>
 80032e4:	2802      	cmp	r0, #2
 80032e6:	d001      	beq.n	80032ec <USBD_Get_USB_Status+0xc>
 80032e8:	2003      	movs	r0, #3
    default :
      usb_status = USBD_FAIL;
    break;
  }
  return usb_status;
}
 80032ea:	4770      	bx	lr
      usb_status = USBD_BUSY;
 80032ec:	2001      	movs	r0, #1
 80032ee:	e7fc      	b.n	80032ea <USBD_Get_USB_Status+0xa>

080032f0 <HAL_PCD_MspInit>:
{
 80032f0:	b510      	push	{r4, lr}
 80032f2:	0004      	movs	r4, r0
 80032f4:	b096      	sub	sp, #88	@ 0x58
  RCC_PeriphCLKInitTypeDef PeriphClkInit = {0};
 80032f6:	224c      	movs	r2, #76	@ 0x4c
 80032f8:	2100      	movs	r1, #0
 80032fa:	a803      	add	r0, sp, #12
 80032fc:	f000 f95d 	bl	80035ba <memset>
  if(pcdHandle->Instance==USB_DRD_FS)
 8003300:	4b1b      	ldr	r3, [pc, #108]	@ (8003370 <HAL_PCD_MspInit+0x80>)
 8003302:	6822      	ldr	r2, [r4, #0]
 8003304:	429a      	cmp	r2, r3
 8003306:	d12d      	bne.n	8003364 <HAL_PCD_MspInit+0x74>
    PeriphClkInit.PeriphClockSelection = RCC_PERIPHCLK_USB;
 8003308:	2380      	movs	r3, #128	@ 0x80
    if (HAL_RCCEx_PeriphCLKConfig(&PeriphClkInit) != HAL_OK)
 800330a:	a803      	add	r0, sp, #12
    PeriphClkInit.PeriphClockSelection = RCC_PERIPHCLK_USB;
 800330c:	045b      	lsls	r3, r3, #17
 800330e:	9303      	str	r3, [sp, #12]
    if (HAL_RCCEx_PeriphCLKConfig(&PeriphClkInit) != HAL_OK)
 8003310:	f7fe fd98 	bl	8001e44 <HAL_RCCEx_PeriphCLKConfig>
 8003314:	2800      	cmp	r0, #0
 8003316:	d001      	beq.n	800331c <HAL_PCD_MspInit+0x2c>
      Error_Handler();
 8003318:	f7fd f99c 	bl	8000654 <Error_Handler>
    __HAL_RCC_USB_CLK_ENABLE();
 800331c:	2280      	movs	r2, #128	@ 0x80
 800331e:	4c15      	ldr	r4, [pc, #84]	@ (8003374 <HAL_PCD_MspInit+0x84>)
 8003320:	0192      	lsls	r2, r2, #6
 8003322:	6be3      	ldr	r3, [r4, #60]	@ 0x3c
 8003324:	4313      	orrs	r3, r2
 8003326:	63e3      	str	r3, [r4, #60]	@ 0x3c
 8003328:	6be3      	ldr	r3, [r4, #60]	@ 0x3c
 800332a:	4013      	ands	r3, r2
    if(__HAL_RCC_PWR_IS_CLK_DISABLED())
 800332c:	2280      	movs	r2, #128	@ 0x80
    __HAL_RCC_USB_CLK_ENABLE();
 800332e:	9301      	str	r3, [sp, #4]
 8003330:	9b01      	ldr	r3, [sp, #4]
    if(__HAL_RCC_PWR_IS_CLK_DISABLED())
 8003332:	6be3      	ldr	r3, [r4, #60]	@ 0x3c
 8003334:	0552      	lsls	r2, r2, #21
 8003336:	4213      	tst	r3, r2
 8003338:	d116      	bne.n	8003368 <HAL_PCD_MspInit+0x78>
      __HAL_RCC_PWR_CLK_ENABLE();
 800333a:	6be3      	ldr	r3, [r4, #60]	@ 0x3c
 800333c:	4313      	orrs	r3, r2
 800333e:	63e3      	str	r3, [r4, #60]	@ 0x3c
 8003340:	6be3      	ldr	r3, [r4, #60]	@ 0x3c
 8003342:	4013      	ands	r3, r2
 8003344:	9302      	str	r3, [sp, #8]
 8003346:	9b02      	ldr	r3, [sp, #8]
      HAL_PWREx_EnableVddUSB();
 8003348:	f7fe fa04 	bl	8001754 <HAL_PWREx_EnableVddUSB>
      __HAL_RCC_PWR_CLK_DISABLE();
 800334c:	6be3      	ldr	r3, [r4, #60]	@ 0x3c
 800334e:	4a0a      	ldr	r2, [pc, #40]	@ (8003378 <HAL_PCD_MspInit+0x88>)
 8003350:	4013      	ands	r3, r2
 8003352:	63e3      	str	r3, [r4, #60]	@ 0x3c
    HAL_NVIC_SetPriority(USB_UCPD1_2_IRQn, 0, 0);
 8003354:	2200      	movs	r2, #0
 8003356:	2008      	movs	r0, #8
 8003358:	0011      	movs	r1, r2
 800335a:	f7fd facd 	bl	80008f8 <HAL_NVIC_SetPriority>
    HAL_NVIC_EnableIRQ(USB_UCPD1_2_IRQn);
 800335e:	2008      	movs	r0, #8
 8003360:	f7fd faf4 	bl	800094c <HAL_NVIC_EnableIRQ>
}
 8003364:	b016      	add	sp, #88	@ 0x58
 8003366:	bd10      	pop	{r4, pc}
      HAL_PWREx_EnableVddUSB();
 8003368:	f7fe f9f4 	bl	8001754 <HAL_PWREx_EnableVddUSB>
 800336c:	e7f2      	b.n	8003354 <HAL_PCD_MspInit+0x64>
 800336e:	46c0      	nop			@ (mov r8, r8)
 8003370:	40005c00 	.word	0x40005c00
 8003374:	40021000 	.word	0x40021000
 8003378:	efffffff 	.word	0xefffffff

0800337c <HAL_PCD_SetupStageCallback>:
  USBD_LL_SetupStage((USBD_HandleTypeDef*)hpcd->pData, (uint8_t *)hpcd->Setup);
 800337c:	23a7      	movs	r3, #167	@ 0xa7
{
 800337e:	b510      	push	{r4, lr}
  USBD_LL_SetupStage((USBD_HandleTypeDef*)hpcd->pData, (uint8_t *)hpcd->Setup);
 8003380:	009b      	lsls	r3, r3, #2
 8003382:	18c1      	adds	r1, r0, r3
 8003384:	3340      	adds	r3, #64	@ 0x40
 8003386:	58c0      	ldr	r0, [r0, r3]
 8003388:	f7ff fb0a 	bl	80029a0 <USBD_LL_SetupStage>
}
 800338c:	bd10      	pop	{r4, pc}

0800338e <HAL_PCD_DataOutStageCallback>:
  USBD_LL_DataOutStage((USBD_HandleTypeDef*)hpcd->pData, epnum, hpcd->OUT_ep[epnum].xfer_buff);
 800338e:	2328      	movs	r3, #40	@ 0x28
 8003390:	434b      	muls	r3, r1
 8003392:	18c3      	adds	r3, r0, r3
 8003394:	33fc      	adds	r3, #252	@ 0xfc
 8003396:	6eda      	ldr	r2, [r3, #108]	@ 0x6c
 8003398:	23b7      	movs	r3, #183	@ 0xb7
{
 800339a:	b510      	push	{r4, lr}
  USBD_LL_DataOutStage((USBD_HandleTypeDef*)hpcd->pData, epnum, hpcd->OUT_ep[epnum].xfer_buff);
 800339c:	009b      	lsls	r3, r3, #2
 800339e:	58c0      	ldr	r0, [r0, r3]
 80033a0:	f7ff fb2e 	bl	8002a00 <USBD_LL_DataOutStage>
}
 80033a4:	bd10      	pop	{r4, pc}

080033a6 <HAL_PCD_DataInStageCallback>:
  USBD_LL_DataInStage((USBD_HandleTypeDef*)hpcd->pData, epnum, hpcd->IN_ep[epnum].xfer_buff);
 80033a6:	2328      	movs	r3, #40	@ 0x28
 80033a8:	434b      	muls	r3, r1
 80033aa:	18c3      	adds	r3, r0, r3
 80033ac:	6a9a      	ldr	r2, [r3, #40]	@ 0x28
 80033ae:	23b7      	movs	r3, #183	@ 0xb7
{
 80033b0:	b510      	push	{r4, lr}
  USBD_LL_DataInStage((USBD_HandleTypeDef*)hpcd->pData, epnum, hpcd->IN_ep[epnum].xfer_buff);
 80033b2:	009b      	lsls	r3, r3, #2
 80033b4:	58c0      	ldr	r0, [r0, r3]
 80033b6:	f7ff fb65 	bl	8002a84 <USBD_LL_DataInStage>
}
 80033ba:	bd10      	pop	{r4, pc}

080033bc <HAL_PCD_SOFCallback>:
  USBD_LL_SOF((USBD_HandleTypeDef*)hpcd->pData);
 80033bc:	23b7      	movs	r3, #183	@ 0xb7
{
 80033be:	b510      	push	{r4, lr}
  USBD_LL_SOF((USBD_HandleTypeDef*)hpcd->pData);
 80033c0:	009b      	lsls	r3, r3, #2
 80033c2:	58c0      	ldr	r0, [r0, r3]
 80033c4:	f7ff fc10 	bl	8002be8 <USBD_LL_SOF>
}
 80033c8:	bd10      	pop	{r4, pc}

080033ca <HAL_PCD_ResetCallback>:
{
 80033ca:	b570      	push	{r4, r5, r6, lr}
  if (hpcd->Init.speed != USBD_FS_SPEED)
 80033cc:	79c3      	ldrb	r3, [r0, #7]
{
 80033ce:	0004      	movs	r4, r0
  if (hpcd->Init.speed != USBD_FS_SPEED)
 80033d0:	2b02      	cmp	r3, #2
 80033d2:	d001      	beq.n	80033d8 <HAL_PCD_ResetCallback+0xe>
    Error_Handler();
 80033d4:	f7fd f93e 	bl	8000654 <Error_Handler>
  USBD_LL_SetSpeed((USBD_HandleTypeDef*)hpcd->pData, speed);
 80033d8:	25b7      	movs	r5, #183	@ 0xb7
 80033da:	00ad      	lsls	r5, r5, #2
 80033dc:	2101      	movs	r1, #1
 80033de:	5960      	ldr	r0, [r4, r5]
 80033e0:	f7ff fbe0 	bl	8002ba4 <USBD_LL_SetSpeed>
  USBD_LL_Reset((USBD_HandleTypeDef*)hpcd->pData);
 80033e4:	5960      	ldr	r0, [r4, r5]
 80033e6:	f7ff fbaa 	bl	8002b3e <USBD_LL_Reset>
}
 80033ea:	bd70      	pop	{r4, r5, r6, pc}

080033ec <HAL_PCD_SuspendCallback>:
  USBD_LL_Suspend((USBD_HandleTypeDef*)hpcd->pData);
 80033ec:	23b7      	movs	r3, #183	@ 0xb7
{
 80033ee:	b510      	push	{r4, lr}
 80033f0:	0004      	movs	r4, r0
  USBD_LL_Suspend((USBD_HandleTypeDef*)hpcd->pData);
 80033f2:	009b      	lsls	r3, r3, #2
 80033f4:	58c0      	ldr	r0, [r0, r3]
 80033f6:	f7ff fbd9 	bl	8002bac <USBD_LL_Suspend>
  if (hpcd->Init.low_power_enable)
 80033fa:	7ae3      	ldrb	r3, [r4, #11]
 80033fc:	2b00      	cmp	r3, #0
 80033fe:	d004      	beq.n	800340a <HAL_PCD_SuspendCallback+0x1e>
    SCB->SCR |= (uint32_t)((uint32_t)(SCB_SCR_SLEEPDEEP_Msk | SCB_SCR_SLEEPONEXIT_Msk));
 8003400:	2306      	movs	r3, #6
 8003402:	4a02      	ldr	r2, [pc, #8]	@ (800340c <HAL_PCD_SuspendCallback+0x20>)
 8003404:	6911      	ldr	r1, [r2, #16]
 8003406:	430b      	orrs	r3, r1
 8003408:	6113      	str	r3, [r2, #16]
}
 800340a:	bd10      	pop	{r4, pc}
 800340c:	e000ed00 	.word	0xe000ed00

08003410 <HAL_PCD_ResumeCallback>:
{
 8003410:	b510      	push	{r4, lr}
  if (hpcd->Init.low_power_enable)
 8003412:	7ac3      	ldrb	r3, [r0, #11]
{
 8003414:	0004      	movs	r4, r0
  if (hpcd->Init.low_power_enable)
 8003416:	2b00      	cmp	r3, #0
 8003418:	d006      	beq.n	8003428 <HAL_PCD_ResumeCallback+0x18>
    SCB->SCR &= (uint32_t)~((uint32_t)(SCB_SCR_SLEEPDEEP_Msk | SCB_SCR_SLEEPONEXIT_Msk));
 800341a:	2106      	movs	r1, #6
 800341c:	4a05      	ldr	r2, [pc, #20]	@ (8003434 <HAL_PCD_ResumeCallback+0x24>)
 800341e:	6913      	ldr	r3, [r2, #16]
 8003420:	438b      	bics	r3, r1
 8003422:	6113      	str	r3, [r2, #16]
  SystemClock_Config();
 8003424:	f7fc fff0 	bl	8000408 <SystemClock_Config>
  USBD_LL_Resume((USBD_HandleTypeDef*)hpcd->pData);
 8003428:	23b7      	movs	r3, #183	@ 0xb7
 800342a:	009b      	lsls	r3, r3, #2
 800342c:	58e0      	ldr	r0, [r4, r3]
 800342e:	f7ff fbcd 	bl	8002bcc <USBD_LL_Resume>
}
 8003432:	bd10      	pop	{r4, pc}
 8003434:	e000ed00 	.word	0xe000ed00

08003438 <USBD_LL_Init>:
  hpcd_USB_DRD_FS.pData = pdev;
 8003438:	23b7      	movs	r3, #183	@ 0xb7
{
 800343a:	b570      	push	{r4, r5, r6, lr}
 800343c:	0004      	movs	r4, r0
  hpcd_USB_DRD_FS.pData = pdev;
 800343e:	4816      	ldr	r0, [pc, #88]	@ (8003498 <USBD_LL_Init+0x60>)
 8003440:	009b      	lsls	r3, r3, #2
 8003442:	50c4      	str	r4, [r0, r3]
  hpcd_USB_DRD_FS.Instance = USB_DRD_FS;
 8003444:	4b15      	ldr	r3, [pc, #84]	@ (800349c <USBD_LL_Init+0x64>)
  pdev->pData = &hpcd_USB_DRD_FS;
 8003446:	25b2      	movs	r5, #178	@ 0xb2
  hpcd_USB_DRD_FS.Instance = USB_DRD_FS;
 8003448:	6003      	str	r3, [r0, #0]
  hpcd_USB_DRD_FS.Init.dev_endpoints = 8;
 800344a:	4b15      	ldr	r3, [pc, #84]	@ (80034a0 <USBD_LL_Init+0x68>)
  pdev->pData = &hpcd_USB_DRD_FS;
 800344c:	00ad      	lsls	r5, r5, #2
  hpcd_USB_DRD_FS.Init.dev_endpoints = 8;
 800344e:	8083      	strh	r3, [r0, #4]
  hpcd_USB_DRD_FS.Init.speed = PCD_SPEED_FULL;
 8003450:	2302      	movs	r3, #2
 8003452:	71c3      	strb	r3, [r0, #7]
  hpcd_USB_DRD_FS.Init.phy_itface = PCD_PHY_EMBEDDED;
 8003454:	7243      	strb	r3, [r0, #9]
  hpcd_USB_DRD_FS.Init.Sof_enable = DISABLE;
 8003456:	2300      	movs	r3, #0
  pdev->pData = &hpcd_USB_DRD_FS;
 8003458:	5160      	str	r0, [r4, r5]
  hpcd_USB_DRD_FS.Init.Sof_enable = DISABLE;
 800345a:	8143      	strh	r3, [r0, #10]
  hpcd_USB_DRD_FS.Init.lpm_enable = DISABLE;
 800345c:	60c3      	str	r3, [r0, #12]
  hpcd_USB_DRD_FS.Init.iso_singlebuffer_enable = DISABLE;
 800345e:	7403      	strb	r3, [r0, #16]
  if (HAL_PCD_Init(&hpcd_USB_DRD_FS) != HAL_OK)
 8003460:	f7fd fb86 	bl	8000b70 <HAL_PCD_Init>
 8003464:	2800      	cmp	r0, #0
 8003466:	d001      	beq.n	800346c <USBD_LL_Init+0x34>
    Error_Handler( );
 8003468:	f7fd f8f4 	bl	8000654 <Error_Handler>
  HAL_PCDEx_PMAConfig((PCD_HandleTypeDef*)pdev->pData , 0x00 , PCD_SNG_BUF, 0x18);
 800346c:	2200      	movs	r2, #0
 800346e:	5960      	ldr	r0, [r4, r5]
 8003470:	0011      	movs	r1, r2
 8003472:	2318      	movs	r3, #24
 8003474:	f7fe f943 	bl	80016fe <HAL_PCDEx_PMAConfig>
  HAL_PCDEx_PMAConfig((PCD_HandleTypeDef*)pdev->pData , 0x80 , PCD_SNG_BUF, 0x58);
 8003478:	5960      	ldr	r0, [r4, r5]
 800347a:	2358      	movs	r3, #88	@ 0x58
 800347c:	2200      	movs	r2, #0
 800347e:	2180      	movs	r1, #128	@ 0x80
 8003480:	f7fe f93d 	bl	80016fe <HAL_PCDEx_PMAConfig>
  HAL_PCDEx_PMAConfig((PCD_HandleTypeDef*)pdev->pData , 0x81 , PCD_SNG_BUF, 0x100);
 8003484:	2380      	movs	r3, #128	@ 0x80
 8003486:	5960      	ldr	r0, [r4, r5]
 8003488:	2200      	movs	r2, #0
 800348a:	2181      	movs	r1, #129	@ 0x81
 800348c:	005b      	lsls	r3, r3, #1
 800348e:	f7fe f936 	bl	80016fe <HAL_PCDEx_PMAConfig>
}
 8003492:	2000      	movs	r0, #0
 8003494:	bd70      	pop	{r4, r5, r6, pc}
 8003496:	46c0      	nop			@ (mov r8, r8)
 8003498:	20000624 	.word	0x20000624
 800349c:	40005c00 	.word	0x40005c00
 80034a0:	00000808 	.word	0x00000808

080034a4 <USBD_LL_Start>:
  hal_status = HAL_PCD_Start(pdev->pData);
 80034a4:	23b2      	movs	r3, #178	@ 0xb2
{
 80034a6:	b510      	push	{r4, lr}
  hal_status = HAL_PCD_Start(pdev->pData);
 80034a8:	009b      	lsls	r3, r3, #2
 80034aa:	58c0      	ldr	r0, [r0, r3]
 80034ac:	f7fd fbb0 	bl	8000c10 <HAL_PCD_Start>
  usb_status =  USBD_Get_USB_Status(hal_status);
 80034b0:	f7ff ff16 	bl	80032e0 <USBD_Get_USB_Status>
}
 80034b4:	bd10      	pop	{r4, pc}

080034b6 <USBD_LL_OpenEP>:
{
 80034b6:	b510      	push	{r4, lr}
 80034b8:	0014      	movs	r4, r2
 80034ba:	001a      	movs	r2, r3
  hal_status = HAL_PCD_EP_Open(pdev->pData, ep_addr, ep_mps, ep_type);
 80034bc:	0023      	movs	r3, r4
 80034be:	24b2      	movs	r4, #178	@ 0xb2
 80034c0:	00a4      	lsls	r4, r4, #2
 80034c2:	5900      	ldr	r0, [r0, r4]
 80034c4:	f7fe f838 	bl	8001538 <HAL_PCD_EP_Open>
  usb_status =  USBD_Get_USB_Status(hal_status);
 80034c8:	f7ff ff0a 	bl	80032e0 <USBD_Get_USB_Status>
}
 80034cc:	bd10      	pop	{r4, pc}

080034ce <USBD_LL_CloseEP>:
  hal_status = HAL_PCD_EP_Close(pdev->pData, ep_addr);
 80034ce:	23b2      	movs	r3, #178	@ 0xb2
{
 80034d0:	b510      	push	{r4, lr}
  hal_status = HAL_PCD_EP_Close(pdev->pData, ep_addr);
 80034d2:	009b      	lsls	r3, r3, #2
 80034d4:	58c0      	ldr	r0, [r0, r3]
 80034d6:	f7fe f85d 	bl	8001594 <HAL_PCD_EP_Close>
  usb_status =  USBD_Get_USB_Status(hal_status);
 80034da:	f7ff ff01 	bl	80032e0 <USBD_Get_USB_Status>
}
 80034de:	bd10      	pop	{r4, pc}

080034e0 <USBD_LL_StallEP>:
  hal_status = HAL_PCD_EP_SetStall(pdev->pData, ep_addr);
 80034e0:	23b2      	movs	r3, #178	@ 0xb2
{
 80034e2:	b510      	push	{r4, lr}
  hal_status = HAL_PCD_EP_SetStall(pdev->pData, ep_addr);
 80034e4:	009b      	lsls	r3, r3, #2
 80034e6:	58c0      	ldr	r0, [r0, r3]
 80034e8:	f7fe f8ad 	bl	8001646 <HAL_PCD_EP_SetStall>
  usb_status =  USBD_Get_USB_Status(hal_status);
 80034ec:	f7ff fef8 	bl	80032e0 <USBD_Get_USB_Status>
}
 80034f0:	bd10      	pop	{r4, pc}

080034f2 <USBD_LL_ClearStallEP>:
  hal_status = HAL_PCD_EP_ClrStall(pdev->pData, ep_addr);
 80034f2:	23b2      	movs	r3, #178	@ 0xb2
{
 80034f4:	b510      	push	{r4, lr}
  hal_status = HAL_PCD_EP_ClrStall(pdev->pData, ep_addr);
 80034f6:	009b      	lsls	r3, r3, #2
 80034f8:	58c0      	ldr	r0, [r0, r3]
 80034fa:	f7fe f8d2 	bl	80016a2 <HAL_PCD_EP_ClrStall>
  usb_status =  USBD_Get_USB_Status(hal_status);
 80034fe:	f7ff feef 	bl	80032e0 <USBD_Get_USB_Status>
}
 8003502:	bd10      	pop	{r4, pc}

08003504 <USBD_LL_IsStallEP>:
  PCD_HandleTypeDef *hpcd = (PCD_HandleTypeDef*) pdev->pData;
 8003504:	23b2      	movs	r3, #178	@ 0xb2
 8003506:	009b      	lsls	r3, r3, #2
 8003508:	58c3      	ldr	r3, [r0, r3]
  if((ep_addr & 0x80) == 0x80)
 800350a:	b248      	sxtb	r0, r1
 800350c:	2228      	movs	r2, #40	@ 0x28
 800350e:	2800      	cmp	r0, #0
 8003510:	da05      	bge.n	800351e <USBD_LL_IsStallEP+0x1a>
    return hpcd->IN_ep[ep_addr & 0x7F].is_stall;
 8003512:	207f      	movs	r0, #127	@ 0x7f
 8003514:	4001      	ands	r1, r0
 8003516:	434a      	muls	r2, r1
 8003518:	189b      	adds	r3, r3, r2
 800351a:	7d98      	ldrb	r0, [r3, #22]
}
 800351c:	4770      	bx	lr
    return hpcd->OUT_ep[ep_addr & 0x7F].is_stall;
 800351e:	434a      	muls	r2, r1
 8003520:	189b      	adds	r3, r3, r2
 8003522:	3357      	adds	r3, #87	@ 0x57
 8003524:	33ff      	adds	r3, #255	@ 0xff
 8003526:	7818      	ldrb	r0, [r3, #0]
 8003528:	e7f8      	b.n	800351c <USBD_LL_IsStallEP+0x18>

0800352a <USBD_LL_SetUSBAddress>:
  hal_status = HAL_PCD_SetAddress(pdev->pData, dev_addr);
 800352a:	23b2      	movs	r3, #178	@ 0xb2
{
 800352c:	b510      	push	{r4, lr}
  hal_status = HAL_PCD_SetAddress(pdev->pData, dev_addr);
 800352e:	009b      	lsls	r3, r3, #2
 8003530:	58c0      	ldr	r0, [r0, r3]
 8003532:	f7fd fb80 	bl	8000c36 <HAL_PCD_SetAddress>
  usb_status =  USBD_Get_USB_Status(hal_status);
 8003536:	f7ff fed3 	bl	80032e0 <USBD_Get_USB_Status>
}
 800353a:	bd10      	pop	{r4, pc}

0800353c <USBD_LL_Transmit>:
{
 800353c:	b510      	push	{r4, lr}
  hal_status = HAL_PCD_EP_Transmit(pdev->pData, ep_addr, pbuf, size);
 800353e:	24b2      	movs	r4, #178	@ 0xb2
 8003540:	00a4      	lsls	r4, r4, #2
 8003542:	5900      	ldr	r0, [r0, r4]
 8003544:	f7fe f867 	bl	8001616 <HAL_PCD_EP_Transmit>
  usb_status =  USBD_Get_USB_Status(hal_status);
 8003548:	f7ff feca 	bl	80032e0 <USBD_Get_USB_Status>
}
 800354c:	bd10      	pop	{r4, pc}

0800354e <USBD_LL_PrepareReceive>:
{
 800354e:	b510      	push	{r4, lr}
  hal_status = HAL_PCD_EP_Receive(pdev->pData, ep_addr, pbuf, size);
 8003550:	24b2      	movs	r4, #178	@ 0xb2
 8003552:	00a4      	lsls	r4, r4, #2
 8003554:	5900      	ldr	r0, [r0, r4]
 8003556:	f7fe f843 	bl	80015e0 <HAL_PCD_EP_Receive>
  usb_status =  USBD_Get_USB_Status(hal_status);
 800355a:	f7ff fec1 	bl	80032e0 <USBD_Get_USB_Status>
}
 800355e:	bd10      	pop	{r4, pc}

08003560 <HAL_PCDEx_LPM_Callback>:
{
 8003560:	b510      	push	{r4, lr}
 8003562:	0004      	movs	r4, r0
  switch (msg)
 8003564:	2900      	cmp	r1, #0
 8003566:	d002      	beq.n	800356e <HAL_PCDEx_LPM_Callback+0xe>
 8003568:	2901      	cmp	r1, #1
 800356a:	d010      	beq.n	800358e <HAL_PCDEx_LPM_Callback+0x2e>
}
 800356c:	bd10      	pop	{r4, pc}
    if (hpcd->Init.low_power_enable)
 800356e:	7ac3      	ldrb	r3, [r0, #11]
 8003570:	2b00      	cmp	r3, #0
 8003572:	d006      	beq.n	8003582 <HAL_PCDEx_LPM_Callback+0x22>
  SystemClock_Config();
 8003574:	f7fc ff48 	bl	8000408 <SystemClock_Config>
      SCB->SCR &= (uint32_t)~((uint32_t)(SCB_SCR_SLEEPDEEP_Msk | SCB_SCR_SLEEPONEXIT_Msk));
 8003578:	2106      	movs	r1, #6
 800357a:	4a0c      	ldr	r2, [pc, #48]	@ (80035ac <HAL_PCDEx_LPM_Callback+0x4c>)
 800357c:	6913      	ldr	r3, [r2, #16]
 800357e:	438b      	bics	r3, r1
 8003580:	6113      	str	r3, [r2, #16]
    USBD_LL_Resume(hpcd->pData);
 8003582:	23b7      	movs	r3, #183	@ 0xb7
 8003584:	009b      	lsls	r3, r3, #2
 8003586:	58e0      	ldr	r0, [r4, r3]
 8003588:	f7ff fb20 	bl	8002bcc <USBD_LL_Resume>
    break;
 800358c:	e7ee      	b.n	800356c <HAL_PCDEx_LPM_Callback+0xc>
    USBD_LL_Suspend(hpcd->pData);
 800358e:	23b7      	movs	r3, #183	@ 0xb7
 8003590:	009b      	lsls	r3, r3, #2
 8003592:	58c0      	ldr	r0, [r0, r3]
 8003594:	f7ff fb0a 	bl	8002bac <USBD_LL_Suspend>
    if (hpcd->Init.low_power_enable)
 8003598:	7ae3      	ldrb	r3, [r4, #11]
 800359a:	2b00      	cmp	r3, #0
 800359c:	d0e6      	beq.n	800356c <HAL_PCDEx_LPM_Callback+0xc>
      SCB->SCR |= (uint32_t)((uint32_t)(SCB_SCR_SLEEPDEEP_Msk | SCB_SCR_SLEEPONEXIT_Msk));
 800359e:	2306      	movs	r3, #6
 80035a0:	4a02      	ldr	r2, [pc, #8]	@ (80035ac <HAL_PCDEx_LPM_Callback+0x4c>)
 80035a2:	6911      	ldr	r1, [r2, #16]
 80035a4:	430b      	orrs	r3, r1
 80035a6:	6113      	str	r3, [r2, #16]
}
 80035a8:	e7e0      	b.n	800356c <HAL_PCDEx_LPM_Callback+0xc>
 80035aa:	46c0      	nop			@ (mov r8, r8)
 80035ac:	e000ed00 	.word	0xe000ed00

080035b0 <USBD_static_malloc>:
  return mem;
 80035b0:	4800      	ldr	r0, [pc, #0]	@ (80035b4 <USBD_static_malloc+0x4>)
}
 80035b2:	4770      	bx	lr
 80035b4:	20000610 	.word	0x20000610

080035b8 <USBD_static_free>:
}
 80035b8:	4770      	bx	lr

080035ba <memset>:
 80035ba:	0003      	movs	r3, r0
 80035bc:	1882      	adds	r2, r0, r2
 80035be:	4293      	cmp	r3, r2
 80035c0:	d100      	bne.n	80035c4 <memset+0xa>
 80035c2:	4770      	bx	lr
 80035c4:	7019      	strb	r1, [r3, #0]
 80035c6:	3301      	adds	r3, #1
 80035c8:	e7f9      	b.n	80035be <memset+0x4>
	...

080035cc <__libc_init_array>:
 80035cc:	b570      	push	{r4, r5, r6, lr}
 80035ce:	2600      	movs	r6, #0
 80035d0:	4c0c      	ldr	r4, [pc, #48]	@ (8003604 <__libc_init_array+0x38>)
 80035d2:	4d0d      	ldr	r5, [pc, #52]	@ (8003608 <__libc_init_array+0x3c>)
 80035d4:	1b64      	subs	r4, r4, r5
 80035d6:	10a4      	asrs	r4, r4, #2
 80035d8:	42a6      	cmp	r6, r4
 80035da:	d109      	bne.n	80035f0 <__libc_init_array+0x24>
 80035dc:	2600      	movs	r6, #0
 80035de:	f000 f819 	bl	8003614 <_init>
 80035e2:	4c0a      	ldr	r4, [pc, #40]	@ (800360c <__libc_init_array+0x40>)
 80035e4:	4d0a      	ldr	r5, [pc, #40]	@ (8003610 <__libc_init_array+0x44>)
 80035e6:	1b64      	subs	r4, r4, r5
 80035e8:	10a4      	asrs	r4, r4, #2
 80035ea:	42a6      	cmp	r6, r4
 80035ec:	d105      	bne.n	80035fa <__libc_init_array+0x2e>
 80035ee:	bd70      	pop	{r4, r5, r6, pc}
 80035f0:	00b3      	lsls	r3, r6, #2
 80035f2:	58eb      	ldr	r3, [r5, r3]
 80035f4:	4798      	blx	r3
 80035f6:	3601      	adds	r6, #1
 80035f8:	e7ee      	b.n	80035d8 <__libc_init_array+0xc>
 80035fa:	00b3      	lsls	r3, r6, #2
 80035fc:	58eb      	ldr	r3, [r5, r3]
 80035fe:	4798      	blx	r3
 8003600:	3601      	adds	r6, #1
 8003602:	e7f2      	b.n	80035ea <__libc_init_array+0x1e>
 8003604:	080036b4 	.word	0x080036b4
 8003608:	080036b4 	.word	0x080036b4
 800360c:	080036b8 	.word	0x080036b8
 8003610:	080036b4 	.word	0x080036b4

08003614 <_init>:
 8003614:	b5f8      	push	{r3, r4, r5, r6, r7, lr}
 8003616:	46c0      	nop			@ (mov r8, r8)
 8003618:	bcf8      	pop	{r3, r4, r5, r6, r7}
 800361a:	bc08      	pop	{r3}
 800361c:	469e      	mov	lr, r3
 800361e:	4770      	bx	lr

08003620 <_fini>:
 8003620:	b5f8      	push	{r3, r4, r5, r6, r7, lr}
 8003622:	46c0      	nop			@ (mov r8, r8)
 8003624:	bcf8      	pop	{r3, r4, r5, r6, r7}
 8003626:	bc08      	pop	{r3}
 8003628:	469e      	mov	lr, r3
 800362a:	4770      	bx	lr
